(dp0
S'../newslicerffmpeg/CVE-2016-2213/ffmpeg-2.8.2/jpeg2000dec/point/jpeg2000dec_8_1662:cblk,1663:cblk,1663:cblk,1664:cblk,1664:cblk,1667:cblk,1668:cblk,1671:cblk,1673:cblk,1675:cblk_#jpeg2000_decode_tile#.slicer.c'
p1
(lp2
sS'../newslicerffmpeg/CVE-2013-0874/ffmpeg-1.1.2/tiff/point/tiff_3_221:ap0,226:ap0,231:ap0,231:ap0,232:ap0_#doubles2str#.slicer.c'
p3
(lp4
I41
aI43
aI235
asS'../newslicerffmpeg/CVE-2016-2213/ffmpeg-2.8.2/jpeg2000dec/point/jpeg2000dec_5_1642:rlevel,1644:rlevel,1653:rlevel,1653:rlevel_#jpeg2000_decode_tile#.slicer.c'
p5
(lp6
sS'../newslicerffmpeg/CVE-2013-7024/ffmpeg-2.0.2/jpeg2000dec/point/jpeg2000dec_4_1199:comp,1230:comp,1232:comp,1239:comp,1239:comp,1239:comp,1257:comp,1258:comp,1303:comp,1304:comp_#jpeg2000_decode_tile#.slicer.c'
p7
(lp8
I218
aI221
aI249
aI252
asS'../newslicerffmpeg/CVE-2012-2790/ffmpeg-0.10.5/alsdec/point/alsdec_1_596:ctx,597:ctx,598:ctx,737:ctx,747:ctx,749:ctx,775:ctx,775:ctx,832:ctx_#read_var_block_data#.slicer.c'
p9
(lp10
I150
aI152
asS'../newslicerffmpeg/CVE-2016-2213/ffmpeg-2.8.2/jpeg2000dec/point/jpeg2000dec_12_1729:i_datap,1733:i_datap,1778:i_datap,1783:i_datap_#jpeg2000_decode_tile#.slicer.c'
p11
(lp12
I181
aI182
aI183
aI184
aI185
asS'../newslicerffmpeg/CVE-2013-0844/ffmpeg-1.0.3/adpcm/bds/adpcm_53_1149:n,1149:nb_samples,1149:st,1239:n,1228:nb_samples,1254:st_#adpcm_decode_frame#.slicer.c'
p13
(lp14
sS'../newslicerffmpeg/CVE-2014-5271/ffmpeg-2.3.2/proresenc_kostya/bds/proresenc_kostya_19_1026:slice_size,1026:slice_hdr_size,1026:sizes,1026:ctx,1032:slice_size,1032:slice_hdr_size,1029:sizes,1027:ctx_#encode_frame#.slicer.c'
p15
(lp16
I9
aI10
aI74
asS'../newslicerffmpeg/CVE-2012-2775/ffmpeg-0.10.5/alsdec/arr/alsdec_2_646:sx,775:sx,788:sx,796:sx,796:sx_#read_var_block_data#.slicer.c'
p17
(lp18
I150
aI152
asS'../newslicerffmpeg/CVE-2013-3674/ffmpeg-1.2/cdgraphics/point/cdgraphics_1_273:avpkt_#cdg_decode_frame#.slicer.c'
p19
(lp20
sS'../newslicerffmpeg/CVE-2015-1872/ffmpeg-2.5.3/mjpegdec/api/mjpegdec_2_310:v_count,310:v_count,354:v_count,354:v_count_#ff_mjpeg_decode_sof#.slicer.c'
p21
(lp22
sS'../newslicerffmpeg/CVE-2012-2776/ffmpeg-0.10.5/indeo3/bds/indeo3_4_423:x,423:h_zoom,423:x,533:h_zoom_#decode_cell_data#.slicer.c'
p23
(lp24
I59
aI60
asS'../newslicerffmpeg/CVE-2013-7009/ffmpeg-2.0.1/rpza/bds/rpza_11_174:color4,174:ta,174:tb,196:color4,186:ta,186:tb_#rpza_decode_stream#.slicer.c'
p25
(lp26
I23
aI52
aI83
aI94
asS'../newslicerffmpeg/CVE-2012-2776/ffmpeg-0.10.5/indeo3/bds/indeo3_2_422:is_first_row,422:y,422:v_zoom,437:is_first_row,422:y,527:v_zoom_#decode_cell_data#.slicer.c'
p27
(lp28
I59
aI60
asS'../newslicerffmpeg/CVE-2013-4264/ffmpeg-2.0/g2meet/bds/g2meet_13_419:bitbuf,419:bitbuf_#kempf_decode_tile#.slicer.c'
p29
(lp30
I140
asS'../newslicerffmpeg/CVE-2013-0856/ffmpeg-1.0/alac/bds/alac_5_252:sign,252:val,252:error_sign,254:sign,255:val,252:error_sign_#lpc_prediction#.slicer.c'
p31
(lp32
I88
asS'../newslicerffmpeg/CVE-2013-7017/ffmpeg-2.0.1/jpeg2000/bds/jpeg2000_5_457:cblk,457:comp,457:reslevelno,457:comp,457:reslevelno,472:cblk,465:comp,465:reslevelno,465:comp,465:reslevelno_#ff_jpeg2000_init_component#.slicer.c'
p33
(lp34
I53
aI96
asS'../newslicerffmpeg/CVE-2015-1872/ffmpeg-2.5.3/mjpegdec/bds/mjpegdec_5_410:s,410:j,617:s,411:j_#ff_mjpeg_decode_sof#.slicer.c'
p35
(lp36
I216
aI218
asS'../newslicerffmpeg/CVE-2015-1872/ffmpeg-2.5.3/mjpegdec/bds/mjpegdec_12_504:s,617:s_#ff_mjpeg_decode_sof#.slicer.c'
p37
(lp38
I216
aI218
asS'../newslicerffmpeg/CVE-2014-9316/ffmpeg-2.4.3/mjpegdec/bds/mjpegdec_8_1646:len,1734:len_#mjpeg_decode_app#.slicer.c'
p39
(lp40
I111
aI112
aI113
aI114
asS'../newslicerffmpeg/CVE-2016-2328/ffmpeg-2.8.2/swscale_unscaled/point/swscale_unscaled_2_1080:dst,1081:dst,1082:dst_#bayer_to_yv12_wrapper#.slicer.c'
p41
(lp42
sS'../newslicerffmpeg/CVE-2013-7024/ffmpeg-2.0.2/jpeg2000dec/point/jpeg2000dec_3_1198:codsty,1221:codsty,1229:codsty,1239:codsty,1277:codsty,1322:codsty_#jpeg2000_decode_tile#.slicer.c'
p43
(lp44
I218
aI221
aI249
aI252
asS'../newslicerffmpeg/CVE-2013-0844/ffmpeg-1.0.3/adpcm/bds/adpcm_57_1203:n,1203:nb_samples,1203:st,1239:n,1228:nb_samples,1254:st_#adpcm_decode_frame#.slicer.c'
p45
(lp46
sS'../newslicerffmpeg/CVE-2010-3429/ffmpeg-0.6/flicvideo/bds/flicvideo_38_668:stream_ptr,668:chunk_size,668:stream_ptr,676:chunk_size_#flic_decode_frame_15_16BPP#.slicer.c'
p47
(lp48
I56
aI60
aI97
aI103
asS'../newslicerffmpeg/CVE-2013-7024/ffmpeg-2.0.2/jpeg2000dec/point/jpeg2000dec_2_1194:tile,1195:tile,1243:tile,1244:tile,1255:tile,1256:tile,1260:tile,1269:tile,1271:tile,1274:tile,1301:tile,1302:tile,1307:tile,1315:tile,1317:tile,1320:tile_#jpeg2000_decode_tile#.slicer.c'
p49
(lp50
I217
aI220
aI248
aI251
asS'../newslicerffmpeg/CVE-2012-2794/ffmpeg-0.10.5/indeo5/bds/indeo5_3_467:mv_x,467:mv_y,547:mv_x,548:mv_y_#decode_mb_info#.slicer.c'
p51
(lp52
sS'../newslicerffmpeg/CVE-2013-7019/ffmpeg-2.0.2/jpeg2000dec/point/jpeg2000dec_2_366:s,373:s,376:s,378:s,379:s,388:s,392:s,396:s,398:s,404:s_#get_cox#.slicer.c'
p53
(lp54
I23
aI24
aI25
asS'../newslicerffmpeg/CVE-2013-7024/ffmpeg-2.0.2/jpeg2000dec/point/jpeg2000dec_8_1221:cblk,1222:cblk,1222:cblk,1223:cblk,1223:cblk,1226:cblk,1227:cblk,1230:cblk,1232:cblk_#jpeg2000_decode_tile#.slicer.c'
p55
(lp56
sS'../newslicerffmpeg/CVE-2013-0859/ffmpeg-1.0/tiff/point/tiff_1_258:dp,259:dp,263:dp,264:dp,265:dp_#add_doubles_metadata#.slicer.c'
p57
(lp58
I8
asS'../newslicerffmpeg/CVE-2011-3362/ffmpeg-0.8.1/cavsdec/point/cavsdec_1_121:h,143:h,146:h_#decode_residual_block#.slicer.c'
p59
(lp60
sS'../newslicerffmpeg/CVE-2013-3674/ffmpeg-1.2/cdgraphics/point/cdgraphics_3_299:buf,300:buf,302:buf,303:buf_#cdg_decode_frame#.slicer.c'
p61
(lp62
sS'../newslicerffmpeg/CVE-2013-7024/ffmpeg-2.0.2/jpeg2000dec/bds/jpeg2000dec_7_1278:x,1278:s,1278:compno,1333:x,1333:s,1333:compno_#jpeg2000_decode_tile#.slicer.c'
p63
(lp64
I217
aI220
aI248
aI251
asS'../newslicerffmpeg/CVE-2014-8546/ffmpeg-2.4.1/cinepak/bds/cinepak_16_257:ip1,257:ip1_#cinepak_decode_vectors#.slicer.c'
p65
(lp66
sS'../newslicerffmpeg/CVE-2014-5271/ffmpeg-2.3.2/proresenc_kostya/point/proresenc_kostya_11_999:slice_sizes,1031:slice_sizes_#encode_frame#.slicer.c'
p67
(lp68
I9
aI10
aI74
asS'../newslicerffmpeg/CVE-2013-7009/ffmpeg-2.0.1/rpza/point/rpza_2_147:pixels,196:pixels,217:pixels_#rpza_decode_stream#.slicer.c'
p69
(lp70
I23
aI52
aI83
aI94
asS'../newslicerffmpeg/CVE-2012-0850/ffmpeg-0.9/aacsbr/point/aacsbr_1_1190:v_off,1193:v_off,1195:v_off,1197:v_off_#sbr_qmf_synthesis#.slicer.c'
p71
(lp72
I5
asS'../newslicerffmpeg/CVE-2011-3936/ffmpeg-0.8.10/dv/point/dv_1_112:as_pack,115:as_pack,116:as_pack,117:as_pack_#dv_extract_audio#.slicer.c'
p73
(lp74
sS'../newslicerffmpeg/CVE-2016-2327/ffmpeg-2.8.2/pngenc/point/pngenc_1_693:avctx,706:avctx_#apng_encode_frame#.slicer.c'
p75
(lp76
I102
aI103
asS'../newslicerffmpeg/CVE-2014-5271/ffmpeg-2.3.2/proresenc_kostya/bds/proresenc_kostya_1_537:plane_factor,537:slice_width_factor,539:plane_factor,537:slice_width_factor_#encode_slice#.slicer.c'
p77
(lp78
I25
aI26
aI81
asS'../newslicerffmpeg/CVE-2014-9316/ffmpeg-2.4.3/mjpegdec/bds/mjpegdec_2_1579:len,1579:t_w,1579:t_h,1734:len,1579:t_w,1579:t_h_#mjpeg_decode_app#.slicer.c'
p79
(lp80
I111
aI112
aI113
aI114
asS'../newslicerffmpeg/CVE-2016-2213/ffmpeg-2.8.2/jpeg2000dec/point/jpeg2000dec_9_1716:dst,1723:dst,1725:dst,1732:dst,1734:dst,1765:dst,1772:dst,1774:dst,1782:dst,1784:dst_#jpeg2000_decode_tile#.slicer.c'
p81
(lp82
I181
aI182
aI183
aI184
aI185
asS'../newslicerffmpeg/CVE-2012-6615/ffmpeg-1.0.1/ass_split/point/ass_split_4_375:priv,380:priv,393:priv,399:priv,405:priv,413:priv,421:priv,425:priv,429:priv,432:priv,435:priv,453:priv,455:priv_#ff_ass_split_override_codes#.slicer.c'
p83
(lp84
I5
asS'../newslicerffmpeg/CVE-2012-2776/ffmpeg-0.10.5/indeo3/point/indeo3_5_425:block,532:block,538:block_#decode_cell_data#.slicer.c'
p85
(lp86
I59
aI60
asS'../newslicerffmpeg/CVE-2014-8547/ffmpeg-2.4.1/gifdec/bds/gifdec_15_285:ptr,285:ptr1,285:linesize,295:ptr,285:ptr1,295:linesize_#gif_read_image#.slicer.c'
p87
(lp88
I96
aI97
aI98
aI99
aI102
aI103
aI104
aI105
asS'../newslicerffmpeg/CVE-2010-3429/ffmpeg-0.6/flicvideo/bds/flicvideo_36_629:pixel_ptr,629:pixel_ptr_#flic_decode_frame_15_16BPP#.slicer.c'
p89
(lp90
I56
aI60
aI97
aI103
asS'../newslicerffmpeg/CVE-2013-7009/ffmpeg-2.0.1/rpza/bds/rpza_10_173:color4,173:ta,173:tb,196:color4,186:ta,186:tb_#rpza_decode_stream#.slicer.c'
p91
(lp92
I23
aI52
aI83
aI94
asS'../newslicerffmpeg/CVE-2014-9316/ffmpeg-2.4.3/mjpegdec/bds/mjpegdec_7_1641:len,1734:len_#mjpeg_decode_app#.slicer.c'
p93
(lp94
I111
aI112
aI113
aI114
asS'../newslicerffmpeg/CVE-2013-0868/ffmpeg-1.1.1/huffyuvdec/api/huffyuvdec_1_134:s,134:p,176:s,135:p_#generate_joint_tables#.slicer.c'
p95
(lp96
I12
aI27
aI31
aI35
asS'../newslicerffmpeg/CVE-2014-8546/ffmpeg-2.4.1/cinepak/api/cinepak_20_243:ip2,243:cb3,258:ip2,243:cb3_#cinepak_decode_vectors#.slicer.c'
p97
(lp98
sS'../newslicerffmpeg/CVE-2010-3429/ffmpeg-0.6/flicvideo/bds/flicvideo_10_265:pixel_countdown,265:pixel_skip,366:pixel_countdown,308:pixel_skip_#flic_decode_frame_8BPP#.slicer.c'
p99
(lp100
I64
aI77
asS'../newslicerffmpeg/CVE-2012-2790/ffmpeg-0.10.5/alsdec/arr/alsdec_3_679:parcor_scaled_values,683:parcor_scaled_values,709:parcor_scaled_values,712:parcor_scaled_values_#read_var_block_data#.slicer.c'
p101
(lp102
I150
aI152
asS'../newslicerffmpeg/CVE-2013-0864/ffmpeg-1.1.1/gifdec/point/gifdec_8_127:src_pr,129:src_pr_#gif_copy_img_rect#.slicer.c'
p103
(lp104
I51
asS'../newslicerffmpeg/CVE-2014-8546/ffmpeg-2.4.1/cinepak/point/cinepak_9_213:cb0,230:cb0,231:cb0,235:cb0,236:cb0,244:cb0,246:cb0_#cinepak_decode_vectors#.slicer.c'
p105
(lp106
sS'../newslicerffmpeg/CVE-2013-7017/ffmpeg-2.0.1/jpeg2000/point/jpeg2000_11_509:reslevel,510:reslevel,511:reslevel,511:reslevel,520:reslevel_#ff_jpeg2000_cleanup#.slicer.c'
p107
(lp108
I9
asS'../newslicerffmpeg/CVE-2014-8545/ffmpeg-2.4.1/pngdec/bds/pngdec_11_868:pd,868:s,868:pd,885:s_#decode_frame#.slicer.c'
p109
(lp110
I90
asS'../newslicerffmpeg/CVE-2013-7009/ffmpeg-2.0.1/rpza/bds/rpza_12_179:color4,179:ta,179:tb,196:color4,186:ta,186:tb_#rpza_decode_stream#.slicer.c'
p111
(lp112
I23
aI52
aI83
aI94
asS'../newslicerffmpeg/CVE-2011-3973/ffmpeg-0.8.2/cavsdec/api/cavsdec_2_685:h,706:h_#cavs_decode_frame#.slicer.c'
p113
(lp114
I14
asS'../newslicerffmpeg/CVE-2013-7011/ffmpeg-2.0.1/ffv1dec/bds/ffv1dec_2_708:fs,708:f,721:fs,738:f_#read_header#.slicer.c'
p115
(lp116
I58
aI59
aI60
aI61
asS'../newslicerffmpeg/CVE-2011-3949/ffmpeg-0.9.4/diracdec/point/diracdec_2_937:gb,939:gb,944:gb,948:gb,956:gb,958:gb,959:gb,962:gb,979:gb_#dirac_unpack_idwt_params#.slicer.c'
p117
(lp118
I69
aI97
aI98
aI99
aI103
aI104
aI105
asS'../newslicerffmpeg/CVE-2015-1872/ffmpeg-2.5.3/mjpegdec/arr/mjpegdec_2_310:v_count,310:v_count,315:v_count,319:v_count,320:v_count,326:v_count,348:v_count,348:v_count,354:v_count,354:v_count_#ff_mjpeg_decode_sof#.slicer.c'
p119
(lp120
sS'../newslicerffmpeg/CVE-2013-7017/ffmpeg-2.0.1/jpeg2000/bds/jpeg2000_2_311:band,311:qntsty,311:gbandno,452:band,311:qntsty,311:gbandno_#ff_jpeg2000_init_component#.slicer.c'
p121
(lp122
I53
aI96
asS'../newslicerffmpeg/CVE-2013-7017/ffmpeg-2.0.1/jpeg2000/bds/jpeg2000_8_465:cblk,465:comp,465:reslevelno,465:comp,465:reslevelno,472:cblk,465:comp,465:reslevelno,465:comp,465:reslevelno_#ff_jpeg2000_init_component#.slicer.c'
p123
(lp124
I53
aI96
asS'../newslicerffmpeg/CVE-2014-8547/ffmpeg-2.4.1/gifdec/bds/gifdec_1_147:is_interleaved,147:flags,267:is_interleaved,149:flags_#gif_read_image#.slicer.c'
p125
(lp126
I96
aI97
aI98
aI99
aI102
aI103
aI104
aI105
asS'../newslicerffmpeg/CVE-2012-2790/ffmpeg-0.10.5/alsdec/arr/alsdec_5_732:ltp_gain_values_#read_var_block_data#.slicer.c'
p127
(lp128
I150
aI152
asS'../newslicerffmpeg/CVE-2014-8546/ffmpeg-2.4.1/cinepak/bds/cinepak_15_257:ip0,257:ip0_#cinepak_decode_vectors#.slicer.c'
p129
(lp130
sS'../newslicerffmpeg/CVE-2016-2330/ffmpeg-2.8.2/gif/point/gif_7_179:ptr,190:ptr,196:ptr,207:ptr,208:ptr_#gif_image_write_image#.slicer.c'
p131
(lp132
sS'../newslicerffmpeg/CVE-2013-0868/ffmpeg-1.1.1/huffyuvdec/arr/huffyuvdec_3_129:symbols,130:symbols,136:symbols_#generate_joint_tables#.slicer.c'
p133
(lp134
I12
aI22
aI25
asS'../newslicerffmpeg/CVE-2012-2797/ffmpeg-0.10.14/mpegaudiodec/point/mpegaudiodec_10_1984:data_#decode_frame_mp3on4#.slicer.c'
p135
(lp136
I7
asS'../newslicerffmpeg/CVE-2014-9316/ffmpeg-2.4.3/mjpegdec/bds/mjpegdec_6_1640:len,1734:len_#mjpeg_decode_app#.slicer.c'
p137
(lp138
I111
aI112
aI113
aI114
asS'../newslicerffmpeg/CVE-2013-0878/ffmpeg-1.1.2/targa/point/targa_1_37:y,39:y,42:y,42:y,43:y,44:y_#advance_line#.slicer.c'
p139
(lp140
I132
asS'../newslicerffmpeg/CVE-2012-0850/ffmpeg-0.9/aacsbr/point/aacsbr_3_1197:v,1205:v,1206:v,1215:v,1216:v,1220:v,1221:v,1222:v,1223:v,1224:v,1225:v,1226:v,1227:v,1228:v_#sbr_qmf_synthesis#.slicer.c'
p141
(lp142
I5
asS'../newslicerffmpeg/CVE-2013-0844/ffmpeg-1.0.3/adpcm/bds/adpcm_9_676:samples,676:avctx,1254:samples,1199:avctx_#adpcm_decode_frame#.slicer.c'
p143
(lp144
I223
asS'../newslicerffmpeg/CVE-2016-2213/ffmpeg-2.8.2/jpeg2000dec/bds/jpeg2000dec_6_1715:x,1715:tile,1715:compno,1715:s,1715:s,1715:compno,1777:x,1764:tile,1765:compno,1764:s,1764:s,1765:compno_#jpeg2000_decode_tile#.slicer.c'
p145
(lp146
I181
aI182
aI183
aI184
aI185
asS'../newslicerffmpeg/CVE-2010-3429/ffmpeg-0.6/flicvideo/bds/flicvideo_17_396:stream_ptr,396:chunk_size,396:stream_ptr,404:chunk_size_#flic_decode_frame_8BPP#.slicer.c'
p147
(lp148
I64
aI77
asS'../newslicerffmpeg/CVE-2010-3429/ffmpeg-0.6/flicvideo/point/flicvideo_4_421:data_size_#flic_decode_frame_8BPP#.slicer.c'
p149
(lp150
I64
aI77
asS'../newslicerffmpeg/CVE-2013-7023/ffmpeg-2.0.1/parser/bds/parser_1_244:pc,244:buf_size,272:pc,248:buf_size_#ff_combine_frame#.slicer.c'
p151
(lp152
I10
aI17
asS'../newslicerffmpeg/CVE-2013-4264/ffmpeg-2.0/g2meet/bds/g2meet_4_375:src,414:src_#kempf_decode_tile#.slicer.c'
p153
(lp154
I140
asS'../newslicerffmpeg/CVE-2011-3973/ffmpeg-0.8.2/cavsdec/bds/cavsdec_8_660:buf_end,660:buf,660:buf_size,665:buf_end,664:buf,660:buf_size_#cavs_decode_frame#.slicer.c'
p155
(lp156
I14
asS'../newslicerffmpeg/CVE-2010-3429/ffmpeg-0.6/flicvideo/point/flicvideo_7_519:pixels,563:pixels,574:pixels,616:pixels_#flic_decode_frame_15_16BPP#.slicer.c'
p157
(lp158
I56
aI60
aI97
aI103
asS'../newslicerffmpeg/CVE-2013-0844/ffmpeg-1.0.3/adpcm/bds/adpcm_8_674:samples,674:avctx,1254:samples,1199:avctx_#adpcm_decode_frame#.slicer.c'
p159
(lp160
I223
asS'../newslicerffmpeg/CVE-2014-8546/ffmpeg-2.4.1/cinepak/api/cinepak_17_240:ip3,240:cb2,258:ip3,242:cb2_#cinepak_decode_vectors#.slicer.c'
p161
(lp162
sS'../newslicerffmpeg/CVE-2012-2776/ffmpeg-0.10.5/indeo3/point/indeo3_3_424:ref_block,533:ref_block,537:ref_block_#decode_cell_data#.slicer.c'
p163
(lp164
I59
aI60
asS'../newslicerffmpeg/CVE-2013-3670/ffmpeg-1.2/vmdav/bds/vmdav_4_188:ps,188:l,202:ps,199:l_#rle_unpack#.slicer.c'
p165
(lp166
I136
aI137
asS'../newslicerffmpeg/CVE-2011-3950/ffmpeg-0.9.4/diracdec/point/diracdec_4_1768:pic,1787:pic_#dirac_decode_data_unit#.slicer.c'
p167
(lp168
I65
asS'../newslicerffmpeg/CVE-2013-4264/ffmpeg-2.0/g2meet/arr/g2meet_1_362:transp,366:transp,374:transp,381:transp_#kempf_decode_tile#.slicer.c'
p169
(lp170
sS'../newslicerffmpeg/CVE-2013-7017/ffmpeg-2.0.1/jpeg2000/point/jpeg2000_10_505:codsty_#ff_jpeg2000_cleanup#.slicer.c'
p171
(lp172
I9
asS'../newslicerffmpeg/CVE-2013-4264/ffmpeg-2.0/g2meet/api/g2meet_4_378:pal,378:npal,434:pal,434:npal_#kempf_decode_tile#.slicer.c'
p173
(lp174
I187
asS'../newslicerffmpeg/CVE-2011-3973/ffmpeg-0.8.2/cavsdec/api/cavsdec_1_253:h,253:h_#decode_mb_i#.slicer.c'
p175
(lp176
sS'../newslicerffmpeg/CVE-2013-7011/ffmpeg-2.0.1/ffv1dec/point/ffv1dec_4_697:fs,698:fs,700:fs,703:fs,704:fs,705:fs,705:fs,706:fs,706:fs,708:fs,709:fs,710:fs,710:fs,710:fs,711:fs,711:fs,711:fs,721:fs_#read_header#.slicer.c'
p177
(lp178
I58
aI59
aI60
aI61
asS'../newslicerffmpeg/CVE-2012-2797/ffmpeg-0.10.14/mpegaudiodec/point/mpegaudiodec_6_1928:buf,1937:buf,1952:buf,1956:buf_#decode_frame_mp3on4#.slicer.c'
p179
(lp180
I7
asS'../newslicerffmpeg/CVE-2012-0849/ffmpeg-0.9/j2k_dwt/point/j2k_dwt_1_345:s,347:s,351:s_#ff_j2k_dwt_init#.slicer.c'
p181
(lp182
I4
asS'../newslicerffmpeg/CVE-2012-2797/ffmpeg-0.10.14/mpegaudiodec/point/mpegaudiodec_1_1900:avpkt_#decode_frame_mp3on4#.slicer.c'
p183
(lp184
sS'../newslicerffmpeg/CVE-2013-0844/ffmpeg-1.0.3/adpcm/bds/adpcm_2_620:predictor,620:predictor_#adpcm_decode_frame#.slicer.c'
p185
(lp186
sS'../newslicerffmpeg/CVE-2013-0863/ffmpeg-1.1.1/sanm/bds/sanm_4_667:dst,667:stride,678:dst,680:stride_#old_codec47#.slicer.c'
p187
(lp188
I13
aI14
asS'../newslicerffmpeg/CVE-2014-8545/ffmpeg-2.4.1/pngdec/bds/pngdec_10_867:pd,867:i,867:pd_last,867:i,868:pd,867:i,869:pd_last,867:i_#decode_frame#.slicer.c'
p189
(lp190
I89
asS'../newslicerffmpeg/CVE-2016-2328/ffmpeg-2.8.2/swscale_unscaled/bds/swscale_unscaled_1_1109:srcPtr,1109:srcStride,1116:srcPtr,1116:srcStride_#bayer_to_yv12_wrapper#.slicer.c'
p191
(lp192
I31
asS'../newslicerffmpeg/CVE-2011-3973/ffmpeg-0.8.2/cavsdec/point/cavsdec_11_442:gb,444:gb,446:gb,447:gb,448:gb,449:gb_#check_for_slice#.slicer.c'
p193
(lp194
sS'../newslicerffmpeg/CVE-2010-3429/ffmpeg-0.6/flicvideo/bds/flicvideo_21_473:frame_size,676:frame_size_#flic_decode_frame_15_16BPP#.slicer.c'
p195
(lp196
I56
aI60
aI97
aI103
asS'../newslicerffmpeg/CVE-2011-3362/ffmpeg-0.8.1/cavsdec/bds/cavsdec_1_126:run,126:level_code,141:run,138:level_code_#decode_residual_block#.slicer.c'
p197
(lp198
sS'../newslicerffmpeg/CVE-2014-8547/ffmpeg-2.4.1/gifdec/bds/gifdec_2_148:has_local_palette,148:flags,153:has_local_palette,149:flags_#gif_read_image#.slicer.c'
p199
(lp200
sS'../newslicerffmpeg/CVE-2013-0844/ffmpeg-1.0.3/adpcm/bds/adpcm_19_846:v1,846:v,846:v1,1141:v_#adpcm_decode_frame#.slicer.c'
p201
(lp202
I223
asS'../newslicerffmpeg/CVE-2014-8546/ffmpeg-2.4.1/cinepak/point/cinepak_5_190:ip3,190:ip3,191:ip3,191:ip3,196:ip3,196:ip3,199:ip3,199:ip3,219:ip3,240:ip3,241:ip3,255:ip3,258:ip3_#cinepak_decode_vectors#.slicer.c'
p203
(lp204
sS'../newslicerffmpeg/CVE-2014-2099/ffmpeg-2.1.3/msrle/point/msrle_7_140:got_frame_#msrle_decode_frame#.slicer.c'
p205
(lp206
I15
asS'../newslicerffmpeg/CVE-2014-8546/ffmpeg-2.4.1/cinepak/api/cinepak_10_202:ip1,202:p,257:ip1,238:p_#cinepak_decode_vectors#.slicer.c'
p207
(lp208
sS'../newslicerffmpeg/CVE-2015-8363/ffmpeg-2.8.2/jpeg2000dec/bds/jpeg2000dec_2_1851:tp,1851:tile,1851:tile,1857:tp,1851:tile,1851:tile_#jpeg2000_read_main_headers#.slicer.c'
p209
(lp210
sS'../newslicerffmpeg/CVE-2013-7017/ffmpeg-2.0.1/jpeg2000/bds/jpeg2000_1_296:numbps,296:cbps,296:lut_gain,296:codsty,296:FF_DWT53,296:bandno,296:reslevelno,295:numbps,309:cbps,296:lut_gain,359:codsty,296:FF_DWT53,461:bandno,465:reslevelno_#ff_jpeg2000_init_component#.slicer.c'
p211
(lp212
I53
aI96
asS'../newslicerffmpeg/CVE-2014-2099/ffmpeg-2.1.3/msrle/point/msrle_4_94:buf,121:buf,122:buf,125:buf,127:buf,129:buf,133:buf_#msrle_decode_frame#.slicer.c'
p213
(lp214
I15
asS'../newslicerffmpeg/CVE-2013-0844/ffmpeg-1.0.3/adpcm/bds/adpcm_27_912:n,912:nb_samples,912:st,1239:n,1228:nb_samples,1254:st_#adpcm_decode_frame#.slicer.c'
p215
(lp216
I223
asS'../newslicerffmpeg/CVE-2013-0844/ffmpeg-1.0.3/adpcm/point/adpcm_5_796:samples_end_#adpcm_decode_frame#.slicer.c'
p217
(lp218
I223
asS'../newslicerffmpeg/CVE-2014-5271/ffmpeg-2.3.2/proresenc_kostya/point/proresenc_kostya_7_952:orig_buf,953:orig_buf,954:orig_buf,986:orig_buf,1022:orig_buf,1040:orig_buf,1041:orig_buf,1042:orig_buf_#encode_frame#.slicer.c'
p219
(lp220
I9
aI10
aI74
asS'../newslicerffmpeg/CVE-2014-8546/ffmpeg-2.4.1/cinepak/api/cinepak_9_202:ip1,202:p,257:ip1,238:p_#cinepak_decode_vectors#.slicer.c'
p221
(lp222
sS'../newslicerffmpeg/CVE-2014-9316/ffmpeg-2.4.3/mjpegdec/bds/mjpegdec_10_1703:len,1703:bytes_read,1734:len,1703:bytes_read_#mjpeg_decode_app#.slicer.c'
p223
(lp224
I111
aI112
aI113
aI114
asS'../newslicerffmpeg/CVE-2013-0844/ffmpeg-1.0.3/adpcm/bds/adpcm_25_890:samples,1254:samples_#adpcm_decode_frame#.slicer.c'
p225
(lp226
sS'../newslicerffmpeg/CVE-2010-3429/ffmpeg-0.6/flicvideo/bds/flicvideo_11_272:pixel_countdown,366:pixel_countdown_#flic_decode_frame_8BPP#.slicer.c'
p227
(lp228
I64
aI77
asS'../newslicerffmpeg/CVE-2013-7017/ffmpeg-2.0.1/jpeg2000/bds/jpeg2000_7_463:cblk,463:comp,463:reslevelno,463:comp,463:reslevelno,472:cblk,465:comp,465:reslevelno,465:comp,465:reslevelno_#ff_jpeg2000_init_component#.slicer.c'
p229
(lp230
I53
aI96
asS'../newslicerffmpeg/CVE-2011-3936/ffmpeg-0.8.10/dv/arr/dv_1_128:ppcm_#dv_extract_audio#.slicer.c'
p231
(lp232
I34
asS'../newslicerffmpeg/CVE-2014-8546/ffmpeg-2.4.1/cinepak/api/cinepak_21_244:ip1,244:cb0,257:ip1,246:cb0_#cinepak_decode_vectors#.slicer.c'
p233
(lp234
sS'../newslicerffmpeg/CVE-2011-3362/ffmpeg-0.8.1/cavsdec/bds/cavsdec_4_138:r,138:r,138:level_code,138:r,138:r,138:level_code_#decode_residual_block#.slicer.c'
p235
(lp236
sS'../newslicerffmpeg/CVE-2013-7024/ffmpeg-2.0.2/jpeg2000dec/point/jpeg2000dec_11_1279:datap,1283:datap,1324:datap,1329:datap_#jpeg2000_decode_tile#.slicer.c'
p237
(lp238
I217
aI220
aI248
aI251
asS'../newslicerffmpeg/CVE-2013-7012/ffmpeg-2.0.2/jpeg2000dec/bds/jpeg2000dec_1_281:log2_chroma_wh,281:s,281:i,281:i,281:s,281:i,281:i,281:log2_chroma_wh,317:s,336:i,336:i,317:s,336:i,336:i_#get_siz#.slicer.c'
p239
(lp240
sS'../newslicerffmpeg/CVE-2012-2797/ffmpeg-0.10.14/mpegaudiodec/bds/mpegaudiodec_6_1960:n,1960:m,1960:m,1969:n,1976:m,1976:m_#decode_frame_mp3on4#.slicer.c'
p241
(lp242
I7
asS'../newslicerffmpeg/CVE-2013-7019/ffmpeg-2.0.2/jpeg2000dec/api/jpeg2000dec_1_409:c,409:c,410:c,410:c_#get_cox#.slicer.c'
p243
(lp244
I23
aI24
aI25
asS'../newslicerffmpeg/CVE-2013-0844/ffmpeg-1.0.3/adpcm/point/adpcm_3_582:buf,1199:buf_#adpcm_decode_frame#.slicer.c'
p245
(lp246
sS'../newslicerffmpeg/CVE-2013-0868/ffmpeg-1.1.1/huffyuvdec/arr/huffyuvdec_7_220:classic_add_chroma_#read_old_huffman_tables#.slicer.c'
p247
(lp248
sS'../newslicerffmpeg/CVE-2013-3671/ffmpeg-1.2/log/point/log_5_189:fmt_#format_line#.slicer.c'
p249
(lp250
I11
asS'../newslicerffmpeg/CVE-2012-2794/ffmpeg-0.10.5/indeo5/bds/indeo5_5_472:x,472:band,473:x,556:band_#decode_mb_info#.slicer.c'
p251
(lp252
sS'../newslicerffmpeg/CVE-2012-2797/ffmpeg-0.10.14/mpegaudiodec/bds/mpegaudiodec_7_1962:bp,1962:out_samples,1962:s,1962:fr,1972:bp,1962:out_samples,1984:s,1962:fr_#decode_frame_mp3on4#.slicer.c'
p253
(lp254
I7
asS'../newslicerffmpeg/CVE-2013-7017/ffmpeg-2.0.1/jpeg2000/point/jpeg2000_13_513:prec,514:prec,515:prec_#ff_jpeg2000_cleanup#.slicer.c'
p255
(lp256
I9
aI10
aI11
aI12
asS'../newslicerffmpeg/CVE-2012-2776/ffmpeg-0.10.5/indeo3/bds/indeo3_1_419:blk_row_offset,419:row_offset,419:v_zoom,419:cell,538:blk_row_offset,527:row_offset,527:v_zoom,515:cell_#decode_cell_data#.slicer.c'
p257
(lp258
I59
aI60
asS'../newslicerffmpeg/CVE-2012-2794/ffmpeg-0.10.5/indeo5/bds/indeo5_2_466:mv_scale,466:ctx,466:band,534:mv_scale,562:ctx,556:band_#decode_mb_info#.slicer.c'
p259
(lp260
sS'../newslicerffmpeg/CVE-2013-0868/ffmpeg-1.1.1/huffyuvdec/api/huffyuvdec_2_176:s,176:s_#generate_joint_tables#.slicer.c'
p261
(lp262
I12
aI24
aI28
aI32
asS'../newslicerffmpeg/CVE-2014-2097/ffmpeg-2.1.3/takdec/point/takdec_6_899:got_frame_ptr_#tak_decode_frame#.slicer.c'
p263
(lp264
I29
aI30
aI31
asS'../newslicerffmpeg/CVE-2012-2775/ffmpeg-0.10.5/alsdec/bds/alsdec_9_804:res,804:max_msb,804:cur_k,821:res,804:max_msb,817:cur_k_#read_var_block_data#.slicer.c'
p265
(lp266
I150
aI152
asS'../newslicerffmpeg/CVE-2013-3670/ffmpeg-1.2/vmdav/point/vmdav_6_185:dest_end,191:dest_end_#rle_unpack#.slicer.c'
p267
(lp268
I136
aI137
asS'../newslicerffmpeg/CVE-2010-3429/ffmpeg-0.6/flicvideo/bds/flicvideo_25_499:stream_ptr,668:stream_ptr_#flic_decode_frame_15_16BPP#.slicer.c'
p269
(lp270
I56
aI60
aI97
aI103
asS'../newslicerffmpeg/CVE-2013-4264/ffmpeg-2.0/g2meet/api/g2meet_1_362:transp,381:transp_#kempf_decode_tile#.slicer.c'
p271
(lp272
sS'../newslicerffmpeg/CVE-2012-6615/ffmpeg-1.0.1/ass_split/arr/ass_split_2_389:style,393:style_#ff_ass_split_override_codes#.slicer.c'
p273
(lp274
I5
asS'../newslicerffmpeg/CVE-2014-8546/ffmpeg-2.4.1/cinepak/api/cinepak_11_203:ip0,203:p,257:ip0,238:p_#cinepak_decode_vectors#.slicer.c'
p275
(lp276
sS'../newslicerffmpeg/CVE-2014-9676/ffmpeg-2.1.4/segment/bds/segment_2_699:pkt,699:offset,710:pkt,701:offset_#seg_write_packet#.slicer.c'
p277
(lp278
sS'../newslicerffmpeg/CVE-2011-3362/ffmpeg-0.8.1/cavsdec/point/cavsdec_3_124:r,128:r,128:r,129:r,130:r,134:r,137:r,138:r,138:r_#decode_residual_block#.slicer.c'
p279
(lp280
sS'../newslicerffmpeg/CVE-2011-3973/ffmpeg-0.8.2/cavsdec/point/cavsdec_16_653:data_size,680:data_size,687:data_size,692:data_size_#cavs_decode_frame#.slicer.c'
p281
(lp282
I16
asS'../newslicerffmpeg/CVE-2013-0844/ffmpeg-1.0.3/adpcm/bds/adpcm_7_672:samples,672:avctx,1254:samples,1199:avctx_#adpcm_decode_frame#.slicer.c'
p283
(lp284
I223
asS'../newslicerffmpeg/CVE-2014-8547/ffmpeg-2.4.1/gifdec/bds/gifdec_10_272:y1,290:y1_#gif_read_image#.slicer.c'
p285
(lp286
I96
aI97
aI98
aI99
aI102
aI103
aI104
aI105
asS'../newslicerffmpeg/CVE-2015-8363/ffmpeg-2.8.2/jpeg2000dec/point/jpeg2000dec_2_1804:comp_#jpeg2000_dec_cleanup#.slicer.c'
p287
(lp288
sS'../newslicerffmpeg/CVE-2014-8546/ffmpeg-2.4.1/cinepak/api/cinepak_7_200:ip2,200:p,258:ip2,238:p_#cinepak_decode_vectors#.slicer.c'
p289
(lp290
sS'../newslicerffmpeg/CVE-2011-3950/ffmpeg-0.9.4/diracdec/point/diracdec_3_1730:s,1733:s,1737:s,1737:s,1742:s,1745:s,1747:s,1748:s,1756:s,1759:s,1776:s,1777:s,1778:s,1787:s,1793:s,1797:s_#dirac_decode_data_unit#.slicer.c'
p291
(lp292
I98
asS'../newslicerffmpeg/CVE-2013-0874/ffmpeg-1.1.2/tiff/point/tiff_6_240:ap,243:ap,244:ap,246:ap,247:ap_#shorts2str#.slicer.c'
p293
(lp294
I22
aI27
asS'../newslicerffmpeg/CVE-2010-3429/ffmpeg-0.6/flicvideo/point/flicvideo_3_273:pixels,274:pixels,280:pixels,314:pixels,321:pixels,354:pixels,365:pixels_#flic_decode_frame_8BPP#.slicer.c'
p295
(lp296
I64
aI77
asS'../newslicerffmpeg/CVE-2011-3973/ffmpeg-0.8.2/cavsdec/point/cavsdec_4_144:block,147:block_#decode_residual_block#.slicer.c'
p297
(lp298
sS'../newslicerffmpeg/CVE-2014-8547/ffmpeg-2.4.1/gifdec/point/gifdec_5_260:pr,262:pr_#gif_read_image#.slicer.c'
p299
(lp300
I96
aI97
aI98
aI99
aI102
aI103
aI104
aI105
asS'../newslicerffmpeg/CVE-2013-0851/ffmpeg-1.0/eamad/point/eamad_4_242:data_size,290:data_size_#decode_frame#.slicer.c'
p301
(lp302
I7
asS'../newslicerffmpeg/CVE-2012-6617/ffmpeg-1.0/ffserver/api/ffserver_1_2977:pbuffer,2977:pbuffer_#prepare_sdp_description#.slicer.c'
p303
(lp304
I5
asS'../newslicerffmpeg/CVE-2013-0844/ffmpeg-1.0.3/adpcm/bds/adpcm_15_837:n,837:nb_samples,837:st,1239:n,1228:nb_samples,1254:st_#adpcm_decode_frame#.slicer.c'
p305
(lp306
I223
asS'../newslicerffmpeg/CVE-2011-3973/ffmpeg-0.8.2/cavsdec/bds/cavsdec_1_127:run,127:level_code,142:run,139:level_code_#decode_residual_block#.slicer.c'
p307
(lp308
sS'../newslicerffmpeg/CVE-2010-3429/ffmpeg-0.6/flicvideo/bds/flicvideo_22_478:stream_ptr,668:stream_ptr_#flic_decode_frame_15_16BPP#.slicer.c'
p309
(lp310
I56
aI60
aI97
aI103
asS'../newslicerffmpeg/CVE-2015-1872/ffmpeg-2.5.3/mjpegdec/arr/mjpegdec_1_309:h_count,309:h_count,314:h_count,317:h_count,318:h_count,326:h_count,347:h_count,347:h_count,353:h_count,353:h_count_#ff_mjpeg_decode_sof#.slicer.c'
p311
(lp312
sS'../newslicerffmpeg/CVE-2011-3973/ffmpeg-0.8.2/cavsdec/arr/cavsdec_2_142:run_buf,144:run_buf_#decode_residual_block#.slicer.c'
p313
(lp314
sS'../newslicerffmpeg/CVE-2014-2097/ffmpeg-2.1.3/takdec/point/takdec_5_765:decoded,849:decoded,853:decoded_#tak_decode_frame#.slicer.c'
p315
(lp316
I29
aI30
aI31
asS'../newslicerffmpeg/CVE-2013-4264/ffmpeg-2.0/g2meet/point/g2meet_1_343:src,358:src,362:src,363:src,374:src,375:src,377:src,378:src,378:src,388:src,390:src,390:src,390:src,395:src,398:src,406:src,414:src_#kempf_decode_tile#.slicer.c'
p317
(lp318
I142
asS'../newslicerffmpeg/CVE-2015-1872/ffmpeg-2.5.3/mjpegdec/api/mjpegdec_5_617:s,617:s,617:s,617:s_#ff_mjpeg_decode_sof#.slicer.c'
p319
(lp320
I216
aI218
asS'../newslicerffmpeg/CVE-2012-2797/ffmpeg-0.10.14/mpegaudiodec/bds/mpegaudiodec_10_1976:avctx,1976:m,1982:avctx,1976:m_#decode_frame_mp3on4#.slicer.c'
p321
(lp322
I7
asS'../newslicerffmpeg/CVE-2012-0850/ffmpeg-0.9/aacsbr/arr/aacsbr_2_1203:mdct_buf,1205:mdct_buf,1206:mdct_buf,1212:mdct_buf,1213:mdct_buf,1215:mdct_buf,1215:mdct_buf,1216:mdct_buf,1216:mdct_buf_#sbr_qmf_synthesis#.slicer.c'
p323
(lp324
I5
asS'../newslicerffmpeg/CVE-2012-0849/ffmpeg-0.9/j2k_dwt/arr/j2k_dwt_1_333:b,333:b,334:b,334:b,341:b,341:b_#ff_j2k_dwt_init#.slicer.c'
p325
(lp326
I4
asS'../newslicerffmpeg/CVE-2014-8546/ffmpeg-2.4.1/cinepak/bds/cinepak_14_255:ip3,258:ip3_#cinepak_decode_vectors#.slicer.c'
p327
(lp328
sS'../newslicerffmpeg/CVE-2016-2328/ffmpeg-2.8.2/swscale_unscaled/arr/swscale_unscaled_2_1080:dst,1081:dst,1082:dst_#bayer_to_yv12_wrapper#.slicer.c'
p329
(lp330
sS'../newslicerffmpeg/CVE-2012-6616/ffmpeg-1.0.1/movtextdec/bds/movtextdec_2_87:ptr,87:ptr_#mov_text_decode_frame#.slicer.c'
p331
(lp332
sS'../newslicerffmpeg/CVE-2011-3950/ffmpeg-0.9.4/diracdec/point/diracdec_1_1723:avctx,1737:avctx_#dirac_decode_data_unit#.slicer.c'
p333
(lp334
I67
asS'../newslicerffmpeg/CVE-2010-3429/ffmpeg-0.6/flicvideo/bds/flicvideo_2_177:stream_ptr,396:stream_ptr_#flic_decode_frame_8BPP#.slicer.c'
p335
(lp336
I64
aI77
asS'../newslicerffmpeg/CVE-2013-4264/ffmpeg-2.0/g2meet/api/g2meet_5_381:pal,381:i,381:transp,434:pal,423:i,381:transp_#kempf_decode_tile#.slicer.c'
p337
(lp338
I140
asS'../newslicerffmpeg/CVE-2013-0856/ffmpeg-1.0/alac/bds/alac_1_241:val,241:pred,241:j,241:d,241:lpc_coefs,241:j,255:val,251:pred,255:j,251:d,253:lpc_coefs,255:j_#lpc_prediction#.slicer.c'
p339
(lp340
I88
asS'../newslicerffmpeg/CVE-2014-8546/ffmpeg-2.4.1/cinepak/point/cinepak_6_190:ip2,190:ip2,191:ip2,191:ip2,197:ip2,197:ip2,200:ip2,200:ip2,224:ip2,242:ip2,243:ip2,255:ip2,258:ip2_#cinepak_decode_vectors#.slicer.c'
p341
(lp342
sS'../newslicerffmpeg/CVE-2015-1872/ffmpeg-2.5.3/mjpegdec/bds/mjpegdec_6_411:s,411:j,617:s,411:j_#ff_mjpeg_decode_sof#.slicer.c'
p343
(lp344
I216
aI218
asS'../newslicerffmpeg/CVE-2015-8363/ffmpeg-2.8.2/jpeg2000dec/api/jpeg2000dec_4_1813:s,1813:s,1814:s,1814:s_#jpeg2000_dec_cleanup#.slicer.c'
p345
(lp346
sS'../newslicerffmpeg/CVE-2014-5271/ffmpeg-2.3.2/proresenc_kostya/arr/proresenc_kostya_1_573:sizes_#encode_slice#.slicer.c'
p347
(lp348
I25
aI26
aI81
asS'../newslicerffmpeg/CVE-2012-2790/ffmpeg-0.10.5/alsdec/bds/alsdec_2_638:sb_length,638:bd,638:log2_sub_blocks,828:sb_length,825:bd,638:log2_sub_blocks_#read_var_block_data#.slicer.c'
p349
(lp350
I150
aI152
asS'../newslicerffmpeg/CVE-2013-0878/ffmpeg-1.1.2/targa/bds/targa_1_37:y,37:interleave,44:y,42:interleave_#advance_line#.slicer.c'
p351
(lp352
I132
asS'../newslicerffmpeg/CVE-2013-0868/ffmpeg-1.1.1/huffyuvdec/arr/huffyuvdec_2_128:bits,136:bits,162:bits_#generate_joint_tables#.slicer.c'
p353
(lp354
I12
aI22
aI25
aI39
aI43
aI47
asS'../newslicerffmpeg/CVE-2013-0844/ffmpeg-1.0.3/adpcm/point/adpcm_1_572:avpkt_#adpcm_decode_frame#.slicer.c'
p355
(lp356
sS'../newslicerffmpeg/CVE-2013-0844/ffmpeg-1.0.3/adpcm/bds/adpcm_36_1049:shift,1049:byte,1107:shift,1243:byte_#adpcm_decode_frame#.slicer.c'
p357
(lp358
sS'../newslicerffmpeg/CVE-2013-0851/ffmpeg-1.0/eamad/api/eamad_1_282:s,282:buf_end,282:buf,287:s,283:buf_end,283:buf_#decode_frame#.slicer.c'
p359
(lp360
I7
asS'../newslicerffmpeg/CVE-2016-2213/ffmpeg-2.8.2/jpeg2000dec/point/jpeg2000dec_6_1649:band,1649:band,1650:band,1650:band,1656:band,1667:band,1668:band,1671:band,1673:band,1675:band_#jpeg2000_decode_tile#.slicer.c'
p361
(lp362
sS'../newslicerffmpeg/CVE-2013-0853/ffmpeg-1.0/wavpack/bds/wavpack_4_1220:buf_size,1240:buf_size_#wavpack_decode_frame#.slicer.c'
p363
(lp364
I24
asS'../newslicerffmpeg/CVE-2013-0864/ffmpeg-1.1.1/gifdec/point/gifdec_7_126:dst_px,129:dst_px,130:dst_px_#gif_copy_img_rect#.slicer.c'
p365
(lp366
I51
asS'../newslicerffmpeg/CVE-2011-3934/ffmpeg-0.9.4/vp3/point/vp3_2_1797:src_#vp3_update_thread_context#.slicer.c'
p367
(lp368
sS'../newslicerffmpeg/CVE-2014-8546/ffmpeg-2.4.1/cinepak/api/cinepak_1_196:ip3,196:p,258:ip3,238:p_#cinepak_decode_vectors#.slicer.c'
p369
(lp370
sS'../newslicerffmpeg/CVE-2013-7010/ffmpeg-2.0.1/dsputil/bds/dsputil_1_1934:i,1940:i_#add_bytes_c#.slicer.c'
p371
(lp372
I3
asS'../newslicerffmpeg/CVE-2013-0868/ffmpeg-1.1.1/huffyuvdec/point/huffyuvdec_4_211:s,216:s,219:s,220:s,222:s,223:s,223:s,224:s,224:s,226:s,226:s,227:s,227:s,230:s,235:s_#read_old_huffman_tables#.slicer.c'
p373
(lp374
sS'../newslicerffmpeg/CVE-2012-2776/ffmpeg-0.10.5/indeo3/point/indeo3_2_424:ref,526:ref_#decode_cell_data#.slicer.c'
p375
(lp376
I59
aI60
asS'../newslicerffmpeg/CVE-2013-0868/ffmpeg-1.1.1/huffyuvdec/arr/huffyuvdec_1_127:len,135:len,161:len_#generate_joint_tables#.slicer.c'
p377
(lp378
I12
aI22
aI25
aI39
aI43
aI47
asS'../newslicerffmpeg/CVE-2012-2775/ffmpeg-0.10.5/alsdec/arr/alsdec_4_695:parcor_rice_table,696:parcor_rice_table_#read_var_block_data#.slicer.c'
p379
(lp380
I150
aI152
asS'../newslicerffmpeg/CVE-2014-8545/ffmpeg-2.4.1/pngdec/point/pngdec_6_867:pd_last,869:pd_last_#decode_frame#.slicer.c'
p381
(lp382
I89
asS'../newslicerffmpeg/CVE-2012-2776/ffmpeg-0.10.5/indeo3/bds/indeo3_14_532:block,532:h_zoom,538:block,533:h_zoom_#decode_cell_data#.slicer.c'
p383
(lp384
I59
aI60
asS'../newslicerffmpeg/CVE-2012-6615/ffmpeg-1.0.1/ass_split/arr/ass_split_1_373:new_line,378:new_line,380:new_line_#ff_ass_split_override_codes#.slicer.c'
p385
(lp386
I5
asS'../newslicerffmpeg/CVE-2012-2776/ffmpeg-0.10.5/indeo3/point/indeo3_1_419:cell,422:cell,423:cell,430:cell,463:cell,484:cell,496:cell,499:cell,512:cell,515:cell_#decode_cell_data#.slicer.c'
p387
(lp388
I59
aI60
asS'../newslicerffmpeg/CVE-2014-5271/ffmpeg-2.3.2/proresenc_kostya/bds/proresenc_kostya_14_1000:buf,1000:ctx,1041:buf,1027:ctx_#encode_frame#.slicer.c'
p389
(lp390
I9
aI10
aI74
asS'../newslicerffmpeg/CVE-2014-9316/ffmpeg-2.4.3/mjpegdec/bds/mjpegdec_11_1711:len,1734:len_#mjpeg_decode_app#.slicer.c'
p391
(lp392
I111
aI112
aI113
aI114
asS'../newslicerffmpeg/CVE-2013-7014/ffmpeg-2.0.1/pngdsp/point/pngdsp_2_36:src2,40:src2_#add_bytes_l2_c#.slicer.c'
p393
(lp394
I3
asS'../newslicerffmpeg/CVE-2016-2327/ffmpeg-2.8.2/pngenc/point/pngenc_3_703:best_last_fctl_chunk,782:best_last_fctl_chunk_#apng_encode_frame#.slicer.c'
p395
(lp396
I283
aI284
asS'../newslicerffmpeg/CVE-2010-3429/ffmpeg-0.6/flicvideo/point/flicvideo_1_131:avctx_#flic_decode_frame_8BPP#.slicer.c'
p397
(lp398
sS'../newslicerffmpeg/CVE-2012-2797/ffmpeg-0.10.14/mpegaudiodec/bds/mpegaudiodec_3_1955:out_size,1955:ret,1982:out_size,1955:ret_#decode_frame_mp3on4#.slicer.c'
p399
(lp400
I7
asS'../newslicerffmpeg/CVE-2016-2213/ffmpeg-2.8.2/jpeg2000dec/bds/jpeg2000dec_7_1716:dst,1716:line,1716:x,1716:pixelsize,1716:compno,1716:planar,1784:dst,1716:line,1777:x,1784:pixelsize,1765:compno,1765:planar_#jpeg2000_decode_tile#.slicer.c'
p401
(lp402
I181
aI182
aI183
aI184
aI185
asS'../newslicerffmpeg/CVE-2014-8546/ffmpeg-2.4.1/cinepak/point/cinepak_7_192:ip1,192:ip1,193:ip1,193:ip1,202:ip1,202:ip1,205:ip1,205:ip1,229:ip1,244:ip1,245:ip1,254:ip1,257:ip1_#cinepak_decode_vectors#.slicer.c'
p403
(lp404
sS'../newslicerffmpeg/CVE-2011-3973/ffmpeg-0.8.2/cavsdec/point/cavsdec_7_210:gb,211:gb,216:gb,225:gb,232:gb,241:gb_#decode_mb_i#.slicer.c'
p405
(lp406
sS'../newslicerffmpeg/CVE-2013-7009/ffmpeg-2.0.1/rpza/point/rpza_1_74:s,99:s,106:s,109:s,109:s,113:s,119:s,121:s,141:s,158:s,161:s,188:s,193:s,207:s,214:s_#rpza_decode_stream#.slicer.c'
p407
(lp408
I23
aI52
aI83
aI94
asS'../newslicerffmpeg/CVE-2010-3429/ffmpeg-0.6/flicvideo/point/flicvideo_5_433:avctx_#flic_decode_frame_15_16BPP#.slicer.c'
p409
(lp410
sS'../newslicerffmpeg/CVE-2013-0863/ffmpeg-1.1.1/sanm/point/sanm_3_646:prev2,680:prev2_#old_codec47#.slicer.c'
p411
(lp412
I13
aI14
asS'../newslicerffmpeg/CVE-2016-2330/ffmpeg-2.8.2/gif/bds/gif_3_179:ptr,179:buf,179:y_start,179:linesize,179:x_start,208:ptr,179:buf,179:y_start,196:linesize,179:x_start_#gif_image_write_image#.slicer.c'
p413
(lp414
sS'../newslicerffmpeg/CVE-2014-5271/ffmpeg-2.3.2/proresenc_kostya/point/proresenc_kostya_12_1020:slice_hdr,1025:slice_hdr,1028:slice_hdr_#encode_frame#.slicer.c'
p415
(lp416
I9
aI10
aI74
asS'../newslicerffmpeg/CVE-2012-2775/ffmpeg-0.10.5/alsdec/arr/alsdec_1_641:s,643:s,643:s,646:s,647:s,650:s,652:s,652:s,747:s,749:s,771:s,771:s,772:s,790:s,829:s_#read_var_block_data#.slicer.c'
p417
(lp418
I150
aI152
asS'../newslicerffmpeg/CVE-2014-8541/ffmpeg-2.4.1/mjpegdec/bds/mjpegdec_4_389:pix_fmt_id,389:pix_fmt_id,514:pix_fmt_id,514:pix_fmt_id_#ff_mjpeg_decode_sof#.slicer.c'
p419
(lp420
I65
aI75
aI78
aI90
asS'../newslicerffmpeg/CVE-2014-2099/ffmpeg-2.1.3/msrle/bds/msrle_1_120:j,125:j_#msrle_decode_frame#.slicer.c'
p421
(lp422
I15
asS'../newslicerffmpeg/CVE-2013-0844/ffmpeg-1.0.3/adpcm/bds/adpcm_41_1091:s,1091:avctx,1106:s,1199:avctx_#adpcm_decode_frame#.slicer.c'
p423
(lp424
sS'../newslicerffmpeg/CVE-2013-3671/ffmpeg-1.2/log/api/log_2_185:part,185:part_size,185:avc,185:ptr,185:ptr,191:part,189:part_size,185:avc,186:ptr,186:ptr_#format_line#.slicer.c'
p425
(lp426
I11
asS'../newslicerffmpeg/CVE-2011-3973/ffmpeg-0.8.2/cavsdec/bds/cavsdec_4_139:r,139:r,139:level_code,139:r,139:r,139:level_code_#decode_residual_block#.slicer.c'
p427
(lp428
sS'../newslicerffmpeg/CVE-2014-2097/ffmpeg-2.1.3/takdec/point/takdec_1_674:avctx,686:avctx,689:avctx,723:avctx,724:avctx,725:avctx,728:avctx,729:avctx,730:avctx,733:avctx,734:avctx,742:avctx,744:avctx,762:avctx,765:avctx,769:avctx,773:avctx,819:avctx,845:avctx,864:avctx_#tak_decode_frame#.slicer.c'
p429
(lp430
I29
aI30
aI31
asS'../newslicerffmpeg/CVE-2012-2794/ffmpeg-0.10.5/indeo5/bds/indeo5_8_556:mb_offset,556:band,556:mb_offset,556:band_#decode_mb_info#.slicer.c'
p431
(lp432
sS'../newslicerffmpeg/CVE-2012-2797/ffmpeg-0.10.14/mpegaudiodec/point/mpegaudiodec_7_1930:m,1942:m,1944:m,1945:m,1950:m,1952:m,1960:m,1960:m,1963:m,1976:m_#decode_frame_mp3on4#.slicer.c'
p433
(lp434
I7
asS'../newslicerffmpeg/CVE-2016-2328/ffmpeg-2.8.2/swscale_unscaled/point/swscale_unscaled_4_1110:dstY,1117:dstY_#bayer_to_yv12_wrapper#.slicer.c'
p435
(lp436
I31
asS'../newslicerffmpeg/CVE-2013-0862/ffmpeg-1.1.1/sanm/point/sanm_1_712:ctx,713:ctx,714:ctx,715:ctx,716:ctx,718:ctx,718:ctx,719:ctx,719:ctx,720:ctx,720:ctx,721:ctx,722:ctx,727:ctx,729:ctx,733:ctx,736:ctx,739:ctx,742:ctx_#process_frame_obj#.slicer.c'
p437
(lp438
I62
aI63
asS'../newslicerffmpeg/CVE-2014-8545/ffmpeg-2.4.1/pngdec/bds/pngdec_2_713:s,885:s_#decode_frame#.slicer.c'
p439
(lp440
I90
asS'../newslicerffmpeg/CVE-2011-3929/ffmpeg-0.8.9/dv/point/dv_3_337:ppcm_#dv_produce_packet#.slicer.c'
p441
(lp442
I59
asS'../newslicerffmpeg/CVE-2016-2330/ffmpeg-2.8.2/gif/bds/gif_7_208:ptr,208:size,208:ptr,209:size_#gif_image_write_image#.slicer.c'
p443
(lp444
sS'../newslicerffmpeg/CVE-2016-2213/ffmpeg-2.8.2/jpeg2000dec/bds/jpeg2000dec_8_1725:dst,1725:pixelsize,1784:dst,1784:pixelsize_#jpeg2000_decode_tile#.slicer.c'
p445
(lp446
I181
aI182
aI183
aI184
aI185
asS'../newslicerffmpeg/CVE-2014-8547/ffmpeg-2.4.1/gifdec/bds/gifdec_4_154:pal_size,154:bits_per_pixel,159:pal_size,154:bits_per_pixel_#gif_read_image#.slicer.c'
p447
(lp448
sS'../newslicerffmpeg/CVE-2013-3671/ffmpeg-1.2/log/api/log_1_180:part,180:part_size,180:parent,180:parent,180:parent,191:part,189:part_size,180:parent,180:parent,180:parent_#format_line#.slicer.c'
p449
(lp450
I12
asS'../newslicerffmpeg/CVE-2013-0845/ffmpeg-1.0.3/alsdec/point/alsdec_3_562:gb,563:gb,566:gb,570:gb_#read_const_block_data#.slicer.c'
p451
(lp452
I20
aI21
asS'../newslicerffmpeg/CVE-2012-2776/ffmpeg-0.10.5/indeo3/bds/indeo3_10_495:num_lines,495:line,527:num_lines,525:line_#decode_cell_data#.slicer.c'
p453
(lp454
I59
aI60
asS'../newslicerffmpeg/CVE-2014-5271/ffmpeg-2.3.2/proresenc_kostya/bds/proresenc_kostya_5_546:xp,546:x,546:xp,546:x_#encode_slice#.slicer.c'
p455
(lp456
I25
aI26
aI81
asS'../newslicerffmpeg/CVE-2013-3671/ffmpeg-1.2/log/arr/log_2_173:type,173:type,173:type,181:type,181:type,186:type,186:type_#format_line#.slicer.c'
p457
(lp458
I11
asS'../newslicerffmpeg/CVE-2013-0863/ffmpeg-1.1.1/sanm/bds/sanm_7_678:dst,678:stride,678:dst,680:stride_#old_codec47#.slicer.c'
p459
(lp460
I13
aI14
asS'../newslicerffmpeg/CVE-2014-5271/ffmpeg-2.3.2/proresenc_kostya/bds/proresenc_kostya_12_992:picture_size_pos,992:buf,1037:picture_size_pos,1041:buf_#encode_frame#.slicer.c'
p461
(lp462
I9
aI10
aI74
asS'../newslicerffmpeg/CVE-2014-5271/ffmpeg-2.3.2/proresenc_kostya/bds/proresenc_kostya_17_1017:mbs_per_slice,1017:mbs_per_slice_#encode_frame#.slicer.c'
p463
(lp464
I9
aI10
aI74
asS'../newslicerffmpeg/CVE-2010-3429/ffmpeg-0.6/flicvideo/bds/flicvideo_29_518:pixel_countdown,630:pixel_countdown_#flic_decode_frame_15_16BPP#.slicer.c'
p465
(lp466
I56
aI60
aI97
aI103
asS'../newslicerffmpeg/CVE-2012-2776/ffmpeg-0.10.5/indeo3/bds/indeo3_6_455:code,455:delta_tab,494:code,457:delta_tab_#decode_cell_data#.slicer.c'
p467
(lp468
I59
aI60
asS'../newslicerffmpeg/CVE-2014-2099/ffmpeg-2.1.3/msrle/point/msrle_2_90:avctx,91:avctx,91:avctx,100:avctx,100:avctx,112:avctx,113:avctx,113:avctx,118:avctx,119:avctx,120:avctx,124:avctx_#msrle_decode_frame#.slicer.c'
p469
(lp470
I15
asS'../newslicerffmpeg/CVE-2013-3671/ffmpeg-1.2/log/point/log_2_174:print_prefix,191:print_prefix_#format_line#.slicer.c'
p471
(lp472
I11
asS'../newslicerffmpeg/CVE-2013-4264/ffmpeg-2.0/g2meet/api/g2meet_3_374:transp,381:transp_#kempf_decode_tile#.slicer.c'
p473
(lp474
sS'../newslicerffmpeg/CVE-2011-3929/ffmpeg-0.8.9/dv/point/dv_1_332:c,333:c,337:c,348:c,351:c,355:c,364:c_#dv_produce_packet#.slicer.c'
p475
(lp476
I59
asS'../newslicerffmpeg/CVE-2014-8545/ffmpeg-2.4.1/pngdec/bds/pngdec_5_799:pd,799:s,868:pd,885:s_#decode_frame#.slicer.c'
p477
(lp478
I90
asS'../newslicerffmpeg/CVE-2011-3936/ffmpeg-0.8.10/dv/bds/dv_1_115:smpls,115:as_pack,115:smpls,117:as_pack_#dv_extract_audio#.slicer.c'
p479
(lp480
sS'../newslicerffmpeg/CVE-2013-0864/ffmpeg-1.1.1/gifdec/point/gifdec_1_119:src_#gif_copy_img_rect#.slicer.c'
p481
(lp482
sS'../newslicerffmpeg/CVE-2012-2776/ffmpeg-0.10.5/indeo3/bds/indeo3_3_422:y,422:v_zoom,422:y,527:v_zoom_#decode_cell_data#.slicer.c'
p483
(lp484
I59
aI60
asS'../newslicerffmpeg/CVE-2013-0844/ffmpeg-1.0.3/adpcm/bds/adpcm_29_946:shift_right,946:byte,951:shift_right,1243:byte_#adpcm_decode_frame#.slicer.c'
p485
(lp486
sS'../newslicerffmpeg/CVE-2016-2328/ffmpeg-2.8.2/swscale_unscaled/bds/swscale_unscaled_2_1110:dstY,1110:dstStride,1117:dstY,1119:dstStride_#bayer_to_yv12_wrapper#.slicer.c'
p487
(lp488
I31
asS'../newslicerffmpeg/CVE-2011-3973/ffmpeg-0.8.2/cavsdec/arr/cavsdec_3_144:ff_cavs_dequant_mul_#decode_residual_block#.slicer.c'
p489
(lp490
sS'../newslicerffmpeg/CVE-2013-7011/ffmpeg-2.0.1/ffv1dec/api/ffv1dec_3_735:p,735:f,735:p,744:p,738:f,744:p_#read_header#.slicer.c'
p491
(lp492
I58
aI59
aI60
aI61
asS'../newslicerffmpeg/CVE-2016-2330/ffmpeg-2.8.2/gif/bds/gif_5_191:ref,191:ref_linesize,191:ref,191:ref_linesize_#gif_image_write_image#.slicer.c'
p493
(lp494
sS'../newslicerffmpeg/CVE-2013-0844/ffmpeg-1.0.3/adpcm/bds/adpcm_21_867:smp,867:avctx,869:smp,1199:avctx_#adpcm_decode_frame#.slicer.c'
p495
(lp496
I223
asS'../newslicerffmpeg/CVE-2015-8363/ffmpeg-2.8.2/jpeg2000dec/point/jpeg2000dec_10_1889:poc,1896:poc_#jpeg2000_read_main_headers#.slicer.c'
p497
(lp498
sS'../newslicerffmpeg/CVE-2010-3429/ffmpeg-0.6/flicvideo/bds/flicvideo_34_617:pixel_ptr,629:pixel_ptr_#flic_decode_frame_15_16BPP#.slicer.c'
p499
(lp500
I56
aI60
aI97
aI103
asS'../newslicerffmpeg/CVE-2013-0863/ffmpeg-1.1.1/sanm/bds/sanm_2_662:j,672:j_#old_codec47#.slicer.c'
p501
(lp502
I13
aI14
asS'../newslicerffmpeg/CVE-2016-2213/ffmpeg-2.8.2/jpeg2000dec/bds/jpeg2000dec_11_1764:x,1764:tile,1764:compno,1764:s,1764:s,1764:compno,1777:x,1764:tile,1765:compno,1764:s,1764:s,1765:compno_#jpeg2000_decode_tile#.slicer.c'
p503
(lp504
I181
aI182
aI183
aI184
aI185
asS'../newslicerffmpeg/CVE-2013-0863/ffmpeg-1.1.1/sanm/api/sanm_1_645:prev1,645:ctx,645:stride,679:prev1,703:ctx,680:stride_#old_codec47#.slicer.c'
p505
(lp506
I13
aI14
asS'../newslicerffmpeg/CVE-2014-2097/ffmpeg-2.1.3/takdec/bds/takdec_1_690:hsize,690:gb,866:hsize,866:gb_#tak_decode_frame#.slicer.c'
p507
(lp508
I29
aI30
aI31
asS'../newslicerffmpeg/CVE-2013-0844/ffmpeg-1.0.3/adpcm/point/adpcm_7_867:smp,869:smp_#adpcm_decode_frame#.slicer.c'
p509
(lp510
I223
asS'../newslicerffmpeg/CVE-2015-1872/ffmpeg-2.5.3/mjpegdec/bds/mjpegdec_2_390:pix_fmt_id,390:s,390:s,390:s,390:s,390:s,390:s,390:s,390:s,540:pix_fmt_id,617:s,617:s,617:s,617:s,617:s,617:s,617:s,617:s_#ff_mjpeg_decode_sof#.slicer.c'
p511
(lp512
I216
aI218
asS'../newslicerffmpeg/CVE-2014-8541/ffmpeg-2.4.1/mjpegdec/bds/mjpegdec_5_397:js,397:pix_fmt_id,397:i,401:js,514:pix_fmt_id,588:i_#ff_mjpeg_decode_sof#.slicer.c'
p513
(lp514
I65
aI75
aI78
aI90
asS'../newslicerffmpeg/CVE-2014-8547/ffmpeg-2.4.1/gifdec/bds/gifdec_11_273:ptr,273:linesize,295:ptr,295:linesize_#gif_read_image#.slicer.c'
p515
(lp516
I96
aI97
aI98
aI99
aI102
aI103
aI104
aI105
asS'../newslicerffmpeg/CVE-2013-0844/ffmpeg-1.0.3/adpcm/bds/adpcm_14_758:n,758:nb_samples,758:st,1239:n,1228:nb_samples,1254:st_#adpcm_decode_frame#.slicer.c'
p517
(lp518
I223
asS'../newslicerffmpeg/CVE-2016-2330/ffmpeg-2.8.2/gif/bds/gif_1_106:height,106:y_end,106:y_start,194:height,123:y_end,179:y_start_#gif_image_write_image#.slicer.c'
p519
(lp520
sS'../newslicerffmpeg/CVE-2014-8541/ffmpeg-2.4.1/mjpegdec/api/mjpegdec_4_346:s,346:v_count,346:v_count,590:s,346:v_count,346:v_count_#ff_mjpeg_decode_sof#.slicer.c'
p521
(lp522
I65
aI75
aI78
aI90
asS'../newslicerffmpeg/CVE-2014-2097/ffmpeg-2.1.3/takdec/api/takdec_1_691:pkt,691:hsize,901:pkt,866:hsize_#tak_decode_frame#.slicer.c'
p523
(lp524
I29
aI30
aI31
asS'../newslicerffmpeg/CVE-2012-6617/ffmpeg-1.0/ffserver/point/ffserver_2_2968:pbuffer,2977:pbuffer_#prepare_sdp_description#.slicer.c'
p525
(lp526
I5
asS'../newslicerffmpeg/CVE-2014-8546/ffmpeg-2.4.1/cinepak/api/cinepak_23_246:ip0,246:cb0,257:ip0,246:cb0_#cinepak_decode_vectors#.slicer.c'
p527
(lp528
sS'../newslicerffmpeg/CVE-2013-3671/ffmpeg-1.2/log/api/log_3_189:part,189:part_size,189:fmt,189:vl,191:part,189:part_size,189:fmt,189:vl_#format_line#.slicer.c'
p529
(lp530
I11
asS'../newslicerffmpeg/CVE-2013-7024/ffmpeg-2.0.2/jpeg2000dec/bds/jpeg2000dec_3_1269:y,1269:tile,1269:compno,1269:s,1317:y,1320:tile,1333:compno,1333:s_#jpeg2000_decode_tile#.slicer.c'
p531
(lp532
I217
aI220
aI248
aI251
asS'../newslicerffmpeg/CVE-2012-2797/ffmpeg-0.10.14/mpegaudiodec/bds/mpegaudiodec_5_1957:len,1957:fsize,1957:len,1957:fsize_#decode_frame_mp3on4#.slicer.c'
p533
(lp534
I7
asS'../newslicerffmpeg/CVE-2011-3973/ffmpeg-0.8.2/cavsdec/point/cavsdec_14_646:data_#cavs_decode_frame#.slicer.c'
p535
(lp536
sS'../newslicerffmpeg/CVE-2014-8541/ffmpeg-2.4.1/mjpegdec/api/mjpegdec_2_304:v_count,304:v_count,346:v_count,346:v_count_#ff_mjpeg_decode_sof#.slicer.c'
p537
(lp538
sS'../newslicerffmpeg/CVE-2013-7009/ffmpeg-2.0.1/rpza/bds/rpza_19_215:stream_ptr,215:stream_ptr_#rpza_decode_stream#.slicer.c'
p539
(lp540
I23
aI52
aI83
aI94
asS'../newslicerffmpeg/CVE-2013-0845/ffmpeg-1.0.3/alsdec/point/alsdec_5_569:avctx_#read_const_block_data#.slicer.c'
p541
(lp542
I20
aI21
asS'../newslicerffmpeg/CVE-2013-3670/ffmpeg-1.2/vmdav/bds/vmdav_6_197:ps,202:ps_#rle_unpack#.slicer.c'
p543
(lp544
I136
aI137
asS'../newslicerffmpeg/CVE-2012-0850/ffmpeg-0.9/aacsbr/point/aacsbr_4_1203:mdct,1203:mdct,1212:mdct,1212:mdct,1213:mdct,1213:mdct_#sbr_qmf_synthesis#.slicer.c'
p545
(lp546
I5
asS'../newslicerffmpeg/CVE-2013-0851/ffmpeg-1.0/eamad/point/eamad_6_259:buf_end,281:buf_end,282:buf_end,283:buf_end_#decode_frame#.slicer.c'
p547
(lp548
I7
asS'../newslicerffmpeg/CVE-2013-0874/ffmpeg-1.1.2/tiff/point/tiff_1_216:sep,216:sep,217:sep,224:sep,231:sep_#doubles2str#.slicer.c'
p549
(lp550
I41
aI43
aI235
asS'../newslicerffmpeg/CVE-2014-8546/ffmpeg-2.4.1/cinepak/bds/cinepak_7_195:p,238:p_#cinepak_decode_vectors#.slicer.c'
p551
(lp552
sS'../newslicerffmpeg/CVE-2014-2099/ffmpeg-2.1.3/msrle/point/msrle_6_121:ptr,122:ptr,125:ptr,127:ptr_#msrle_decode_frame#.slicer.c'
p553
(lp554
I15
asS'../newslicerffmpeg/CVE-2013-7012/ffmpeg-2.0.2/jpeg2000dec/point/jpeg2000dec_2_301:tile,301:tile,302:tile_#get_siz#.slicer.c'
p555
(lp556
sS'../newslicerffmpeg/CVE-2014-8547/ffmpeg-2.4.1/gifdec/bds/gifdec_18_295:ptr,295:linesize,295:ptr,295:linesize_#gif_read_image#.slicer.c'
p557
(lp558
I96
aI97
aI98
aI99
aI102
aI103
aI104
aI105
asS'../newslicerffmpeg/CVE-2016-2330/ffmpeg-2.8.2/gif/api/gif_2_102:ref,102:y_end,102:ref_linesize,102:buf,102:y_end,102:linesize,102:width,191:ref,123:y_end,191:ref_linesize,179:buf,123:y_end,196:linesize,159:width_#gif_image_write_image#.slicer.c'
p559
(lp560
sS'../newslicerffmpeg/CVE-2013-0844/ffmpeg-1.0.3/adpcm/bds/adpcm_17_843:v2,843:v,845:v2,1141:v_#adpcm_decode_frame#.slicer.c'
p561
(lp562
I223
asS'../newslicerffmpeg/CVE-2013-4264/ffmpeg-2.0/g2meet/api/g2meet_2_366:dst,366:i,366:transp,432:dst,423:i,381:transp_#kempf_decode_tile#.slicer.c'
p563
(lp564
I192
asS'../newslicerffmpeg/CVE-2014-2099/ffmpeg-2.1.3/msrle/point/msrle_5_103:pal_#msrle_decode_frame#.slicer.c'
p565
(lp566
sS'../newslicerffmpeg/CVE-2010-3429/ffmpeg-0.6/flicvideo/bds/flicvideo_19_469:stream_ptr,668:stream_ptr_#flic_decode_frame_15_16BPP#.slicer.c'
p567
(lp568
I56
aI60
aI97
aI103
asS'../newslicerffmpeg/CVE-2013-3671/ffmpeg-1.2/log/point/log_3_174:avc,175:avc,177:avc,181:avc,185:avc_#format_line#.slicer.c'
p569
(lp570
I11
asS'../newslicerffmpeg/CVE-2013-7009/ffmpeg-2.0.1/rpza/bds/rpza_18_209:block_ptr,209:row_ptr,209:pixel_ptr,220:block_ptr,209:row_ptr,209:pixel_ptr_#rpza_decode_stream#.slicer.c'
p571
(lp572
I23
aI52
aI83
aI94
asS'../newslicerffmpeg/CVE-2016-2213/ffmpeg-2.8.2/jpeg2000dec/bds/jpeg2000dec_3_1667:x,1667:cblk,1667:band,1777:x,1675:cblk,1675:band_#jpeg2000_decode_tile#.slicer.c'
p573
(lp574
I181
aI182
aI183
aI184
aI185
asS'../newslicerffmpeg/CVE-2013-0868/ffmpeg-1.1.1/huffyuvdec/arr/huffyuvdec_6_219:classic_add_luma_#read_old_huffman_tables#.slicer.c'
p575
(lp576
sS'../newslicerffmpeg/CVE-2016-2327/ffmpeg-2.8.2/pngenc/point/pngenc_4_704:best_fctl_chunk,709:best_fctl_chunk,710:best_fctl_chunk,711:best_fctl_chunk,781:best_fctl_chunk_#apng_encode_frame#.slicer.c'
p577
(lp578
I283
aI284
asS'../newslicerffmpeg/CVE-2013-4264/ffmpeg-2.0/g2meet/point/g2meet_2_345:c,345:c,349:c,349:c,350:c,350:c,355:c,355:c,355:c,356:c,356:c,356:c,364:c,395:c,423:c,427:c,427:c,432:c,432:c,433:c,433:c_#kempf_decode_tile#.slicer.c'
p579
(lp580
I188
asS'../newslicerffmpeg/CVE-2014-8547/ffmpeg-2.4.1/gifdec/bds/gifdec_9_262:px,262:ptr,262:idx,262:s,264:px,295:ptr,264:idx,306:s_#gif_read_image#.slicer.c'
p581
(lp582
I96
aI97
aI98
aI99
aI102
aI103
aI104
aI105
asS'../newslicerffmpeg/CVE-2014-5271/ffmpeg-2.3.2/proresenc_kostya/point/proresenc_kostya_1_511:avctx,544:avctx,549:avctx_#encode_slice#.slicer.c'
p583
(lp584
I25
aI26
aI81
asS'../newslicerffmpeg/CVE-2016-2328/ffmpeg-2.8.2/swscale_unscaled/point/swscale_unscaled_5_1111:dstU,1118:dstU_#bayer_to_yv12_wrapper#.slicer.c'
p585
(lp586
I31
asS'../newslicerffmpeg/CVE-2011-3936/ffmpeg-0.8.10/dv/point/dv_3_128:ppcm_#dv_extract_audio#.slicer.c'
p587
(lp588
I34
asS'../newslicerffmpeg/CVE-2013-7024/ffmpeg-2.0.2/jpeg2000dec/point/jpeg2000dec_10_1275:line_#jpeg2000_decode_tile#.slicer.c'
p589
(lp590
I217
aI220
asS'../newslicerffmpeg/CVE-2012-2797/ffmpeg-0.10.14/mpegaudiodec/bds/mpegaudiodec_2_1950:ch,1950:m,1950:ch,1976:m_#decode_frame_mp3on4#.slicer.c'
p591
(lp592
I7
asS'../newslicerffmpeg/CVE-2011-3973/ffmpeg-0.8.2/cavsdec/point/cavsdec_1_122:h,144:h,147:h_#decode_residual_block#.slicer.c'
p593
(lp594
sS'../newslicerffmpeg/CVE-2014-5271/ffmpeg-2.3.2/proresenc_kostya/bds/proresenc_kostya_23_1045:pkt,1045:pkt_#encode_frame#.slicer.c'
p595
(lp596
I9
aI10
aI74
asS'../newslicerffmpeg/CVE-2014-8546/ffmpeg-2.4.1/cinepak/point/cinepak_3_149:s,151:s,153:s,189:s,217:s,253:s_#cinepak_decode_vectors#.slicer.c'
p597
(lp598
sS'../newslicerffmpeg/CVE-2013-0864/ffmpeg-1.1.1/gifdec/point/gifdec_5_124:dst_py,126:dst_py_#gif_copy_img_rect#.slicer.c'
p599
(lp600
I51
asS'../newslicerffmpeg/CVE-2013-0844/ffmpeg-1.0.3/adpcm/bds/adpcm_20_864:n,864:nb_samples,1239:n,1228:nb_samples_#adpcm_decode_frame#.slicer.c'
p601
(lp602
I223
asS'../newslicerffmpeg/CVE-2013-7009/ffmpeg-2.0.1/rpza/bds/rpza_7_150:block_ptr,150:row_inc,220:block_ptr,220:row_inc_#rpza_decode_stream#.slicer.c'
p603
(lp604
I23
aI52
aI83
aI94
asS'../newslicerffmpeg/CVE-2013-4264/ffmpeg-2.0/g2meet/api/g2meet_6_427:c,427:c,427:height,433:c,433:c,434:height_#kempf_decode_tile#.slicer.c'
p605
(lp606
I187
asS'../newslicerffmpeg/CVE-2010-3429/ffmpeg-0.6/flicvideo/bds/flicvideo_32_527:pixel_ptr,629:pixel_ptr_#flic_decode_frame_15_16BPP#.slicer.c'
p607
(lp608
I56
aI60
aI97
aI103
asS'../newslicerffmpeg/CVE-2013-0844/ffmpeg-1.0.3/adpcm/arr/adpcm_2_980:coeff,1094:coeff,1108:coeff,1109:coeff_#adpcm_decode_frame#.slicer.c'
p609
(lp610
sS'../newslicerffmpeg/CVE-2014-8546/ffmpeg-2.4.1/cinepak/point/cinepak_1_135:data,168:data,169:data,178:data,179:data,188:data,213:data,214:data,215:data,216:data_#cinepak_decode_vectors#.slicer.c'
p611
(lp612
sS'../newslicerffmpeg/CVE-2014-8546/ffmpeg-2.4.1/cinepak/bds/cinepak_6_179:data,216:data_#cinepak_decode_vectors#.slicer.c'
p613
(lp614
sS'../newslicerffmpeg/CVE-2012-2779/ffmpeg-0.10.5/indeo5/point/indeo5_3_748:avctx,757:avctx,776:avctx_#decode_frame#.slicer.c'
p615
(lp616
I41
asS'../newslicerffmpeg/CVE-2012-2775/ffmpeg-0.10.5/alsdec/bds/alsdec_2_638:sb_length,638:bd,638:log2_sub_blocks,828:sb_length,825:bd,638:log2_sub_blocks_#read_var_block_data#.slicer.c'
p617
(lp618
I150
aI152
asS'../newslicerffmpeg/CVE-2013-0844/ffmpeg-1.0.3/adpcm/bds/adpcm_24_879:samples,879:avctx,1254:samples,1199:avctx_#adpcm_decode_frame#.slicer.c'
p619
(lp620
I223
asS'../newslicerffmpeg/CVE-2014-2099/ffmpeg-2.1.3/msrle/bds/msrle_2_129:buf,129:istride,133:buf,129:istride_#msrle_decode_frame#.slicer.c'
p621
(lp622
I15
asS'../newslicerffmpeg/CVE-2014-9676/ffmpeg-2.1.4/segment/point/segment_2_639:seg,645:seg,646:seg,646:seg,647:seg,647:seg,648:seg,652:seg,652:seg,666:seg,669:seg,672:seg,674:seg,674:seg,682:seg,686:seg,710:seg,711:seg,714:seg,715:seg_#seg_write_packet#.slicer.c'
p623
(lp624
sS'../newslicerffmpeg/CVE-2013-7024/ffmpeg-2.0.2/jpeg2000dec/point/jpeg2000dec_12_1288:i_datap,1292:i_datap,1334:i_datap,1339:i_datap_#jpeg2000_decode_tile#.slicer.c'
p625
(lp626
I217
aI220
aI248
aI251
asS'../newslicerffmpeg/CVE-2016-2213/ffmpeg-2.8.2/jpeg2000dec/point/jpeg2000dec_13_1765:linel_#jpeg2000_decode_tile#.slicer.c'
p627
(lp628
I181
aI182
aI183
aI184
aI185
asS'../newslicerffmpeg/CVE-2013-0868/ffmpeg-1.1.1/huffyuvdec/point/huffyuvdec_3_189:s,191:s,191:s,194:s,199:s_#read_huffman_tables#.slicer.c'
p629
(lp630
I75
aI79
aI83
asS'../newslicerffmpeg/CVE-2014-8547/ffmpeg-2.4.1/gifdec/point/gifdec_7_262:idx,262:idx,263:idx,264:idx_#gif_read_image#.slicer.c'
p631
(lp632
I96
aI97
aI98
aI99
aI102
aI103
aI104
aI105
asS'../newslicerffmpeg/CVE-2012-2790/ffmpeg-0.10.5/alsdec/point/alsdec_5_679:quant_cof,683:quant_cof,687:quant_cof,697:quant_cof,703:quant_cof,707:quant_cof,709:quant_cof,709:quant_cof,712:quant_cof,712:quant_cof,716:quant_cof,716:quant_cof_#read_var_block_data#.slicer.c'
p633
(lp634
I150
aI152
asS'../newslicerffmpeg/CVE-2013-0856/ffmpeg-1.0/alac/bds/alac_3_243:val,243:d,243:error_val,255:val,251:d,255:error_val_#lpc_prediction#.slicer.c'
p635
(lp636
I88
asS'../newslicerffmpeg/CVE-2010-3429/ffmpeg-0.6/flicvideo/bds/flicvideo_23_480:stream_ptr,668:stream_ptr_#flic_decode_frame_15_16BPP#.slicer.c'
p637
(lp638
I56
aI60
aI97
aI103
asS'../newslicerffmpeg/CVE-2015-1872/ffmpeg-2.5.3/mjpegdec/bds/mjpegdec_9_451:s,617:s_#ff_mjpeg_decode_sof#.slicer.c'
p639
(lp640
I216
aI218
asS'../newslicerffmpeg/CVE-2010-3429/ffmpeg-0.6/flicvideo/bds/flicvideo_30_520:pixel_ptr,629:pixel_ptr_#flic_decode_frame_15_16BPP#.slicer.c'
p641
(lp642
I56
aI60
aI97
aI103
asS'../newslicerffmpeg/CVE-2012-2794/ffmpeg-0.10.5/indeo5/bds/indeo5_7_546:mv_x,547:mv_x_#decode_mb_info#.slicer.c'
p643
(lp644
sS'../newslicerffmpeg/CVE-2013-0851/ffmpeg-1.0/eamad/point/eamad_2_234:buf,246:buf,248:buf,253:buf,254:buf,255:buf,256:buf,259:buf,281:buf,281:buf,282:buf,283:buf_#decode_frame#.slicer.c'
p645
(lp646
I7
asS'../newslicerffmpeg/CVE-2011-3934/ffmpeg-0.9.4/vp3/point/vp3_1_1797:dst,1814:dst,1815:dst,1843:dst_#vp3_update_thread_context#.slicer.c'
p647
(lp648
sS'../newslicerffmpeg/CVE-2016-2330/ffmpeg-2.8.2/gif/point/gif_6_166:pal_exdata,169:pal_exdata_#gif_image_write_image#.slicer.c'
p649
(lp650
sS'../newslicerffmpeg/CVE-2011-3973/ffmpeg-0.8.2/cavsdec/point/cavsdec_3_125:r,129:r,129:r,130:r,131:r,135:r,138:r,139:r,139:r_#decode_residual_block#.slicer.c'
p651
(lp652
sS'../newslicerffmpeg/CVE-2012-2797/ffmpeg-0.10.14/mpegaudiodec/bds/mpegaudiodec_8_1966:bp,1966:avctx,1972:bp,1982:avctx_#decode_frame_mp3on4#.slicer.c'
p653
(lp654
I7
asS'../newslicerffmpeg/CVE-2013-0863/ffmpeg-1.1.1/sanm/bds/sanm_3_663:i,673:i_#old_codec47#.slicer.c'
p655
(lp656
I13
aI14
asS'../newslicerffmpeg/CVE-2016-2327/ffmpeg-2.8.2/pngenc/point/pngenc_7_728:temp_bytestream,729:temp_bytestream,730:temp_bytestream,789:temp_bytestream,808:temp_bytestream_#apng_encode_frame#.slicer.c'
p657
(lp658
I282
aI283
asS'../newslicerffmpeg/CVE-2013-0844/ffmpeg-1.0.3/adpcm/bds/adpcm_3_645:samples,645:avctx,1254:samples,1199:avctx_#adpcm_decode_frame#.slicer.c'
p659
(lp660
sS'../newslicerffmpeg/CVE-2014-5271/ffmpeg-2.3.2/proresenc_kostya/bds/proresenc_kostya_7_549:pwidth,549:avctx,549:pwidth,549:avctx_#encode_slice#.slicer.c'
p661
(lp662
I25
aI26
aI81
asS'../newslicerffmpeg/CVE-2013-0845/ffmpeg-1.0.3/alsdec/point/alsdec_6_966:ctx,971:ctx,974:ctx_#read_block#.slicer.c'
p663
(lp664
I171
aI172
asS'../newslicerffmpeg/CVE-2011-3973/ffmpeg-0.8.2/cavsdec/arr/cavsdec_5_203:ff_cavs_scan3x3,238:ff_cavs_scan3x3_#decode_mb_i#.slicer.c'
p665
(lp666
sS'../newslicerffmpeg/CVE-2014-5271/ffmpeg-2.3.2/proresenc_kostya/bds/proresenc_kostya_16_1012:x,1012:mbs_per_slice,1016:x,1017:mbs_per_slice_#encode_frame#.slicer.c'
p667
(lp668
I9
aI10
aI74
asS'../newslicerffmpeg/CVE-2012-2790/ffmpeg-0.10.5/alsdec/arr/alsdec_7_772:delta,775:delta,788:delta,797:delta_#read_var_block_data#.slicer.c'
p669
(lp670
I150
aI152
asS'../newslicerffmpeg/CVE-2013-0868/ffmpeg-1.1.1/huffyuvdec/point/huffyuvdec_1_115:s,119:s,124:s,128:s,128:s,134:s,135:s,139:s,141:s,142:s,147:s,152:s,156:s,156:s,158:s,162:s,163:s,176:s_#generate_joint_tables#.slicer.c'
p671
(lp672
I12
aI22
aI25
aI40
aI44
aI48
asS'../newslicerffmpeg/CVE-2014-5271/ffmpeg-2.3.2/proresenc_kostya/bds/proresenc_kostya_21_1032:buf,1032:slice_size,1032:slice_hdr_size,1041:buf,1032:slice_size,1032:slice_hdr_size_#encode_frame#.slicer.c'
p673
(lp674
I9
aI10
aI74
asS'../newslicerffmpeg/CVE-2014-8545/ffmpeg-2.4.1/pngdec/bds/pngdec_12_869:pd_last,869:s,869:pd_last,885:s_#decode_frame#.slicer.c'
p675
(lp676
I90
asS'../newslicerffmpeg/CVE-2016-2328/ffmpeg-2.8.2/swscale_unscaled/bds/swscale_unscaled_6_1116:srcPtr,1116:srcStride,1116:srcPtr,1116:srcStride_#bayer_to_yv12_wrapper#.slicer.c'
p677
(lp678
I31
asS'../newslicerffmpeg/CVE-2013-0856/ffmpeg-1.0/alac/bds/alac_2_242:val,242:val,242:lpc_quant,242:lpc_quant,255:val,255:val,255:lpc_quant,255:lpc_quant_#lpc_prediction#.slicer.c'
p679
(lp680
I88
asS'../newslicerffmpeg/CVE-2012-2775/ffmpeg-0.10.5/alsdec/point/alsdec_5_679:quant_cof,683:quant_cof,687:quant_cof,697:quant_cof,703:quant_cof,707:quant_cof,709:quant_cof,709:quant_cof,712:quant_cof,712:quant_cof,716:quant_cof,716:quant_cof_#read_var_block_data#.slicer.c'
p681
(lp682
I150
aI152
asS'../newslicerffmpeg/CVE-2014-5271/ffmpeg-2.3.2/proresenc_kostya/point/proresenc_kostya_2_520:ctx,525:ctx,526:ctx,528:ctx,530:ctx,532:ctx,535:ctx,539:ctx,540:ctx_#encode_slice#.slicer.c'
p683
(lp684
I25
aI26
aI81
asS'../newslicerffmpeg/CVE-2013-7017/ffmpeg-2.0.1/jpeg2000/bds/jpeg2000_4_377:nb_precincts,377:reslevel,377:reslevel,379:nb_precincts,391:reslevel,391:reslevel_#ff_jpeg2000_init_component#.slicer.c'
p685
(lp686
I53
aI96
asS'../newslicerffmpeg/CVE-2013-0844/ffmpeg-1.0.3/adpcm/bds/adpcm_5_664:n,664:nb_samples,1239:n,1228:nb_samples_#adpcm_decode_frame#.slicer.c'
p687
(lp688
I223
asS'../newslicerffmpeg/CVE-2013-4264/ffmpeg-2.0/g2meet/bds/g2meet_1_359:sub_type,359:hdr,400:sub_type,359:hdr_#kempf_decode_tile#.slicer.c'
p689
(lp690
I140
asS'../newslicerffmpeg/CVE-2012-0850/ffmpeg-0.9/aacsbr/bds/aacsbr_1_1195:v_off,1195:div,1197:v_off,1229:div_#sbr_qmf_synthesis#.slicer.c'
p691
(lp692
I5
asS'../newslicerffmpeg/CVE-2012-2776/ffmpeg-0.10.5/indeo3/bds/indeo3_13_527:dst,527:row_offset,527:num_lines,527:v_zoom,527:dst,527:row_offset,527:num_lines,527:v_zoom_#decode_cell_data#.slicer.c'
p693
(lp694
I59
aI60
asS'../newslicerffmpeg/CVE-2014-2097/ffmpeg-2.1.3/takdec/api/takdec_3_849:decoded,849:s,849:chan,849:s,853:decoded,853:s,853:chan,853:s_#tak_decode_frame#.slicer.c'
p695
(lp696
I29
aI30
aI31
asS'../newslicerffmpeg/CVE-2013-0856/ffmpeg-1.0/alac/api/alac_1_213:buffer_out,213:error_buffer,213:nb_samples,213:buffer_out,244:buffer_out,235:error_buffer,232:nb_samples,244:buffer_out_#lpc_prediction#.slicer.c'
p697
(lp698
I89
asS'../newslicerffmpeg/CVE-2013-7010/ffmpeg-2.0.1/dsputil/point/dsputil_5_1962:dst,1965:dst_#diff_bytes_c#.slicer.c'
p699
(lp700
I3
asS'../newslicerffmpeg/CVE-2014-5271/ffmpeg-2.3.2/proresenc_kostya/bds/proresenc_kostya_20_1029:slice_size,1029:sizes,1029:i,1032:slice_size,1029:sizes,1029:i_#encode_frame#.slicer.c'
p701
(lp702
I9
aI10
aI74
asS'../newslicerffmpeg/CVE-2013-7010/ffmpeg-2.0.1/dsputil/point/dsputil_4_1961:src2,1965:src2_#diff_bytes_c#.slicer.c'
p703
(lp704
I3
asS'../newslicerffmpeg/CVE-2010-3429/ffmpeg-0.6/flicvideo/bds/flicvideo_1_175:stream_ptr,396:stream_ptr_#flic_decode_frame_8BPP#.slicer.c'
p705
(lp706
I64
aI77
asS'../newslicerffmpeg/CVE-2012-2790/ffmpeg-0.10.5/alsdec/arr/alsdec_4_695:parcor_rice_table,696:parcor_rice_table_#read_var_block_data#.slicer.c'
p707
(lp708
I150
aI152
asS'../newslicerffmpeg/CVE-2013-3674/ffmpeg-1.2/cdgraphics/arr/cdgraphics_1_303:cdg_data,319:cdg_data,322:cdg_data,331:cdg_data,351:cdg_data_#cdg_decode_frame#.slicer.c'
p709
(lp710
sS'../newslicerffmpeg/CVE-2014-8541/ffmpeg-2.4.1/mjpegdec/bds/mjpegdec_3_387:pix_fmt_id,387:pix_fmt_id,514:pix_fmt_id,514:pix_fmt_id_#ff_mjpeg_decode_sof#.slicer.c'
p711
(lp712
I65
aI75
aI78
aI90
asS'../newslicerffmpeg/CVE-2011-3362/ffmpeg-0.8.1/cavsdec/arr/cavsdec_4_144:ff_cavs_dequant_shift_#decode_residual_block#.slicer.c'
p713
(lp714
sS'../newslicerffmpeg/CVE-2013-0844/ffmpeg-1.0.3/adpcm/bds/adpcm_43_1104:s,1104:avctx,1106:s,1199:avctx_#adpcm_decode_frame#.slicer.c'
p715
(lp716
sS'../newslicerffmpeg/CVE-2014-8545/ffmpeg-2.4.1/pngdec/point/pngdec_2_528:avpkt_#decode_frame#.slicer.c'
p717
(lp718
sS'../newslicerffmpeg/CVE-2012-2797/ffmpeg-0.10.14/mpegaudiodec/point/mpegaudiodec_2_1901:avctx,1911:avctx,1911:avctx,1924:avctx,1944:avctx,1945:avctx,1966:avctx,1972:avctx,1976:avctx,1980:avctx,1982:avctx_#decode_frame_mp3on4#.slicer.c'
p719
(lp720
I7
asS'../newslicerffmpeg/CVE-2012-6615/ffmpeg-1.0.1/ass_split/arr/ass_split_4_394:sep,395:sep,396:sep,397:sep,400:sep,401:sep,402:sep,403:sep,406:sep,407:sep,410:sep,411:sep,414:sep,415:sep,416:sep,417:sep,422:sep,423:sep,426:sep,427:sep,430:sep,433:sep_#ff_ass_split_override_codes#.slicer.c'
p721
(lp722
sS'../newslicerffmpeg/CVE-2010-3429/ffmpeg-0.6/flicvideo/bds/flicvideo_7_244:stream_ptr,396:stream_ptr_#flic_decode_frame_8BPP#.slicer.c'
p723
(lp724
I64
aI77
asS'../newslicerffmpeg/CVE-2012-2790/ffmpeg-0.10.5/alsdec/point/alsdec_6_745:avctx_#read_var_block_data#.slicer.c'
p725
(lp726
I150
aI152
asS'../newslicerffmpeg/CVE-2014-8546/ffmpeg-2.4.1/cinepak/bds/cinepak_4_169:data,216:data_#cinepak_decode_vectors#.slicer.c'
p727
(lp728
sS'../newslicerffmpeg/CVE-2010-3429/ffmpeg-0.6/flicvideo/bds/flicvideo_6_203:stream_ptr,396:stream_ptr_#flic_decode_frame_8BPP#.slicer.c'
p729
(lp730
I64
aI77
asS'../newslicerffmpeg/CVE-2015-1872/ffmpeg-2.5.3/mjpegdec/bds/mjpegdec_1_366:height,606:height_#ff_mjpeg_decode_sof#.slicer.c'
p731
(lp732
I216
aI218
asS'../newslicerffmpeg/CVE-2013-7009/ffmpeg-2.0.1/rpza/bds/rpza_5_142:stream_ptr,215:stream_ptr_#rpza_decode_stream#.slicer.c'
p733
(lp734
I23
aI52
aI83
aI94
asS'../newslicerffmpeg/CVE-2013-7009/ffmpeg-2.0.1/rpza/bds/rpza_14_185:color4,185:ta,185:tb,196:color4,186:ta,186:tb_#rpza_decode_stream#.slicer.c'
p735
(lp736
I23
aI52
aI83
aI94
asS'../newslicerffmpeg/CVE-2013-7024/ffmpeg-2.0.2/jpeg2000dec/bds/jpeg2000dec_18_1340:dst,1340:pixelsize,1340:dst,1340:pixelsize_#jpeg2000_decode_tile#.slicer.c'
p737
(lp738
I217
aI220
asS'../newslicerffmpeg/CVE-2013-3670/ffmpeg-1.2/vmdav/bds/vmdav_3_184:l,184:l,199:l,199:l_#rle_unpack#.slicer.c'
p739
(lp740
I136
aI137
asS'../newslicerffmpeg/CVE-2012-2776/ffmpeg-0.10.5/indeo3/bds/indeo3_7_479:num_lines,479:code,479:line,527:num_lines,494:code,525:line_#decode_cell_data#.slicer.c'
p741
(lp742
I59
aI60
asS'../newslicerffmpeg/CVE-2016-2328/ffmpeg-2.8.2/swscale_unscaled/point/swscale_unscaled_6_1112:dstV,1119:dstV_#bayer_to_yv12_wrapper#.slicer.c'
p743
(lp744
I31
asS'../newslicerffmpeg/CVE-2013-0868/ffmpeg-1.1.1/huffyuvdec/api/huffyuvdec_7_227:s,227:s,235:s,235:s_#read_old_huffman_tables#.slicer.c'
p745
(lp746
sS'../newslicerffmpeg/CVE-2014-8546/ffmpeg-2.4.1/cinepak/api/cinepak_15_206:ip0,206:p,257:ip0,238:p_#cinepak_decode_vectors#.slicer.c'
p747
(lp748
sS'../newslicerffmpeg/CVE-2012-2790/ffmpeg-0.10.5/alsdec/arr/alsdec_6_771:k,772:k,789:k_#read_var_block_data#.slicer.c'
p749
(lp750
I150
aI152
asS'../newslicerffmpeg/CVE-2013-7024/ffmpeg-2.0.2/jpeg2000dec/bds/jpeg2000dec_4_1271:y,1271:s,1271:compno,1317:y,1333:s,1333:compno_#jpeg2000_decode_tile#.slicer.c'
p751
(lp752
I217
aI220
aI248
aI251
asS'../newslicerffmpeg/CVE-2012-2790/ffmpeg-0.10.5/alsdec/bds/alsdec_10_813:res,821:res_#read_var_block_data#.slicer.c'
p753
(lp754
I150
aI152
asS'../newslicerffmpeg/CVE-2011-3973/ffmpeg-0.8.2/cavsdec/point/cavsdec_20_669:h,672:h,677:h,681:h,684:h,685:h,706:h_#cavs_decode_frame#.slicer.c'
p755
(lp756
I14
asS'../newslicerffmpeg/CVE-2010-3429/ffmpeg-0.6/flicvideo/bds/flicvideo_9_264:pixel_ptr,264:pixel_skip,365:pixel_ptr,308:pixel_skip_#flic_decode_frame_8BPP#.slicer.c'
p757
(lp758
I64
aI77
asS'../newslicerffmpeg/CVE-2013-0853/ffmpeg-1.0/wavpack/point/wavpack_1_1171:avctx,1205:avctx,1230:avctx,1236:avctx_#wavpack_decode_frame#.slicer.c'
p759
(lp760
I24
asS'../newslicerffmpeg/CVE-2012-6615/ffmpeg-1.0.1/ass_split/bds/ass_split_3_419:an,419:an,419:an,419:an,421:an,421:an,421:an,421:an_#ff_ass_split_override_codes#.slicer.c'
p761
(lp762
I5
asS'../newslicerffmpeg/CVE-2013-7009/ffmpeg-2.0.1/rpza/bds/rpza_4_115:n_blocks,115:opcode,190:n_blocks,130:opcode_#rpza_decode_stream#.slicer.c'
p763
(lp764
I23
aI52
aI83
aI94
asS'../newslicerffmpeg/CVE-2014-5271/ffmpeg-2.3.2/proresenc_kostya/point/proresenc_kostya_10_992:picture_size_pos,1036:picture_size_pos,1037:picture_size_pos_#encode_frame#.slicer.c'
p765
(lp766
I9
aI10
aI74
asS'../newslicerffmpeg/CVE-2014-8546/ffmpeg-2.4.1/cinepak/api/cinepak_5_199:ip3,199:p,258:ip3,238:p_#cinepak_decode_vectors#.slicer.c'
p767
(lp768
sS'../newslicerffmpeg/CVE-2013-0844/ffmpeg-1.0.3/adpcm/arr/adpcm_1_939:ea_adpcm_table,940:ea_adpcm_table,941:ea_adpcm_table,942:ea_adpcm_table,980:ea_adpcm_table,1047:ea_adpcm_table,1048:ea_adpcm_table,1094:ea_adpcm_table_#adpcm_decode_frame#.slicer.c'
p769
(lp770
sS'../newslicerffmpeg/CVE-2013-7023/ffmpeg-2.0.1/parser/point/parser_1_218:pc,225:pc,225:pc,234:pc,234:pc,244:pc,249:pc,249:pc,252:pc,261:pc,269:pc,272:pc_#ff_combine_frame#.slicer.c'
p771
(lp772
I11
aI18
asS'../newslicerffmpeg/CVE-2014-9676/ffmpeg-2.1.4/segment/point/segment_3_640:pkt,699:pkt,701:pkt,707:pkt,707:pkt,710:pkt_#seg_write_packet#.slicer.c'
p773
(lp774
sS'../newslicerffmpeg/CVE-2014-5271/ffmpeg-2.3.2/proresenc_kostya/bds/proresenc_kostya_4_542:yp,542:y,547:yp,547:y_#encode_slice#.slicer.c'
p775
(lp776
I25
aI26
aI81
asS'../newslicerffmpeg/CVE-2016-2213/ffmpeg-2.8.2/jpeg2000dec/point/jpeg2000dec_11_1720:datap,1724:datap,1768:datap,1773:datap_#jpeg2000_decode_tile#.slicer.c'
p777
(lp778
I181
aI182
aI183
aI184
aI185
asS'../newslicerffmpeg/CVE-2012-2775/ffmpeg-0.10.5/alsdec/bds/alsdec_6_777:current_res,777:sb_length,829:current_res,828:sb_length_#read_var_block_data#.slicer.c'
p779
(lp780
I150
aI152
asS'../newslicerffmpeg/CVE-2013-0845/ffmpeg-1.0.3/alsdec/point/alsdec_7_968:bd,971:bd,974:bd_#read_block#.slicer.c'
p781
(lp782
I171
aI172
asS'../newslicerffmpeg/CVE-2013-4264/ffmpeg-2.0/g2meet/bds/g2meet_5_377:npal,377:src,434:npal,414:src_#kempf_decode_tile#.slicer.c'
p783
(lp784
I187
asS'../newslicerffmpeg/CVE-2013-0844/ffmpeg-1.0.3/adpcm/arr/adpcm_3_981:shift,990:shift,1098:shift,1107:shift_#adpcm_decode_frame#.slicer.c'
p785
(lp786
sS'../newslicerffmpeg/CVE-2013-0863/ffmpeg-1.1.1/sanm/bds/sanm_5_672:j,672:j_#old_codec47#.slicer.c'
p787
(lp788
I13
aI14
asS'../newslicerffmpeg/CVE-2012-2775/ffmpeg-0.10.5/alsdec/bds/alsdec_7_785:current_res,785:bd,785:start,829:current_res,825:bd,828:start_#read_var_block_data#.slicer.c'
p789
(lp790
I150
aI152
asS'../newslicerffmpeg/CVE-2013-0864/ffmpeg-1.1.1/gifdec/point/gifdec_4_124:src_pb_#gif_copy_img_rect#.slicer.c'
p791
(lp792
I51
asS'../newslicerffmpeg/CVE-2011-3936/ffmpeg-0.8.10/dv/point/dv_2_128:pcm_#dv_extract_audio#.slicer.c'
p793
(lp794
I39
asS'../newslicerffmpeg/CVE-2016-2327/ffmpeg-2.8.2/pngenc/point/pngenc_5_725:original_bytestream,728:original_bytestream,729:original_bytestream,788:original_bytestream,792:original_bytestream_#apng_encode_frame#.slicer.c'
p795
(lp796
I282
aI283
asS'../newslicerffmpeg/CVE-2015-1872/ffmpeg-2.5.3/mjpegdec/bds/mjpegdec_11_501:s,617:s_#ff_mjpeg_decode_sof#.slicer.c'
p797
(lp798
I216
aI218
asS'../newslicerffmpeg/CVE-2013-7024/ffmpeg-2.0.2/jpeg2000dec/bds/jpeg2000dec_15_1323:x,1323:s,1323:compno,1333:x,1333:s,1333:compno_#jpeg2000_decode_tile#.slicer.c'
p799
(lp800
I217
aI220
asS'../newslicerffmpeg/CVE-2011-3973/ffmpeg-0.8.2/cavsdec/point/cavsdec_17_659:buf_ptr,662:buf_ptr,662:buf_ptr,664:buf_ptr,665:buf_ptr,668:buf_ptr,683:buf_ptr,705:buf_ptr_#cavs_decode_frame#.slicer.c'
p801
(lp802
I14
asS'../newslicerffmpeg/CVE-2014-5271/ffmpeg-2.3.2/proresenc_kostya/bds/proresenc_kostya_6_547:yp,547:y,547:yp,547:y_#encode_slice#.slicer.c'
p803
(lp804
I25
aI26
aI81
asS'../newslicerffmpeg/CVE-2014-8543/ffmpeg-2.4.1/mmvideo/bds/mmvideo_1_100:run_length,100:color,115:run_length,110:color_#mm_decode_intra#.slicer.c'
p805
(lp806
sS'../newslicerffmpeg/CVE-2014-8547/ffmpeg-2.4.1/gifdec/bds/gifdec_17_291:ptr,291:linesize,295:ptr,295:linesize_#gif_read_image#.slicer.c'
p807
(lp808
I96
aI97
aI98
aI99
aI102
aI103
aI104
aI105
asS'../newslicerffmpeg/CVE-2014-8545/ffmpeg-2.4.1/pngdec/bds/pngdec_7_828:pd,828:s,868:pd,885:s_#decode_frame#.slicer.c'
p809
(lp810
I90
asS'../newslicerffmpeg/CVE-2012-2779/ffmpeg-0.10.5/indeo5/point/indeo5_6_753:buf,754:buf_#decode_frame#.slicer.c'
p811
(lp812
sS'../newslicerffmpeg/CVE-2014-8541/ffmpeg-2.4.1/mjpegdec/bds/mjpegdec_6_399:js,399:pix_fmt_id,399:i,401:js,514:pix_fmt_id,588:i_#ff_mjpeg_decode_sof#.slicer.c'
p813
(lp814
I65
aI75
aI78
aI90
asS'../newslicerffmpeg/CVE-2016-2213/ffmpeg-2.8.2/jpeg2000dec/point/jpeg2000dec_3_1636:codsty,1639:codsty,1662:codsty,1670:codsty,1672:codsty,1682:codsty,1718:codsty,1766:codsty_#jpeg2000_decode_tile#.slicer.c'
p815
(lp816
I182
aI183
aI184
aI185
aI186
asS'../newslicerffmpeg/CVE-2011-3973/ffmpeg-0.8.2/cavsdec/point/cavsdec_10_440:h,448:h,449:h_#check_for_slice#.slicer.c'
p817
(lp818
sS'../newslicerffmpeg/CVE-2013-0844/ffmpeg-1.0.3/adpcm/bds/adpcm_47_1106:s2,1106:avctx,1110:s2,1199:avctx_#adpcm_decode_frame#.slicer.c'
p819
(lp820
sS'../newslicerffmpeg/CVE-2014-5271/ffmpeg-2.3.2/proresenc_kostya/bds/proresenc_kostya_2_539:plane_factor,539:ctx,539:plane_factor,540:ctx_#encode_slice#.slicer.c'
p821
(lp822
I25
aI26
aI81
asS'../newslicerffmpeg/CVE-2012-2776/ffmpeg-0.10.5/indeo3/bds/indeo3_16_537:ref_block,537:blk_row_offset,537:ref_block,538:blk_row_offset_#decode_cell_data#.slicer.c'
p823
(lp824
I59
aI60
asS'../newslicerffmpeg/CVE-2012-2776/ffmpeg-0.10.5/indeo3/bds/indeo3_9_494:skip_flag,494:code,505:skip_flag,494:code_#decode_cell_data#.slicer.c'
p825
(lp826
I59
aI60
asS'../newslicerffmpeg/CVE-2013-3670/ffmpeg-1.2/vmdav/point/vmdav_2_168:ps,172:ps,174:ps,180:ps,182:ps,185:ps,186:ps,187:ps,188:ps,191:ps,192:ps,194:ps,195:ps,197:ps,202:ps_#rle_unpack#.slicer.c'
p827
(lp828
I138
aI140
asS'../newslicerffmpeg/CVE-2014-8546/ffmpeg-2.4.1/cinepak/api/cinepak_3_197:ip2,197:p,258:ip2,238:p_#cinepak_decode_vectors#.slicer.c'
p829
(lp830
sS'../newslicerffmpeg/CVE-2014-5271/ffmpeg-2.3.2/proresenc_kostya/bds/proresenc_kostya_9_944:pkt_size,944:ctx,1022:pkt_size,1027:ctx_#encode_frame#.slicer.c'
p831
(lp832
I9
aI10
aI74
asS'../newslicerffmpeg/CVE-2016-2330/ffmpeg-2.8.2/gif/point/gif_1_83:avctx,83:avctx,92:avctx,93:avctx_#gif_image_write_image#.slicer.c'
p833
(lp834
sS'../newslicerffmpeg/CVE-2013-7009/ffmpeg-2.0.1/rpza/arr/rpza_1_165:color4,166:color4,167:color4,168:color4,173:color4,174:color4,179:color4,180:color4,185:color4,186:color4,196:color4_#rpza_decode_stream#.slicer.c'
p835
(lp836
I23
aI52
aI83
aI94
asS'../newslicerffmpeg/CVE-2014-8541/ffmpeg-2.4.1/mjpegdec/bds/mjpegdec_8_403:s,403:j,590:s,403:j_#ff_mjpeg_decode_sof#.slicer.c'
p837
(lp838
I65
aI75
aI78
aI90
asS'../newslicerffmpeg/CVE-2016-2213/ffmpeg-2.8.2/jpeg2000dec/bds/jpeg2000dec_12_1765:dst,1765:linel,1765:x,1765:pixelsize,1765:compno,1765:planar,1784:dst,1765:linel,1777:x,1784:pixelsize,1765:compno,1765:planar_#jpeg2000_decode_tile#.slicer.c'
p839
(lp840
I181
aI182
aI183
aI184
aI185
asS'../newslicerffmpeg/CVE-2013-0864/ffmpeg-1.1.1/gifdec/point/gifdec_6_125:src_px,127:src_px,129:src_px,129:src_px,130:src_px_#gif_copy_img_rect#.slicer.c'
p841
(lp842
I51
asS'../newslicerffmpeg/CVE-2013-0868/ffmpeg-1.1.1/huffyuvdec/point/huffyuvdec_2_186:src_#read_huffman_tables#.slicer.c'
p843
(lp844
sS'../newslicerffmpeg/CVE-2011-3973/ffmpeg-0.8.2/cavsdec/arr/cavsdec_6_230:cbp_tab_#decode_mb_i#.slicer.c'
p845
(lp846
sS'../newslicerffmpeg/CVE-2014-5271/ffmpeg-2.3.2/proresenc_kostya/bds/proresenc_kostya_15_1012:x,1012:mb,1016:x,1014:mb_#encode_frame#.slicer.c'
p847
(lp848
I9
aI10
aI74
asS'../newslicerffmpeg/CVE-2013-7023/ffmpeg-2.0.1/parser/point/parser_3_240:new_buffer,255:new_buffer_#ff_combine_frame#.slicer.c'
p849
(lp850
I10
aI15
asS'../newslicerffmpeg/CVE-2016-2327/ffmpeg-2.8.2/pngenc/point/pngenc_6_726:original_bytestream_end,728:original_bytestream_end,729:original_bytestream_end,793:original_bytestream_end,801:original_bytestream_end_#apng_encode_frame#.slicer.c'
p851
(lp852
I285
aI286
asS'../newslicerffmpeg/CVE-2013-7009/ffmpeg-2.0.1/rpza/bds/rpza_6_144:block_ptr,144:row_ptr,144:pixel_ptr,220:block_ptr,209:row_ptr,209:pixel_ptr_#rpza_decode_stream#.slicer.c'
p853
(lp854
I23
aI52
aI83
aI94
asS'../newslicerffmpeg/CVE-2014-8541/ffmpeg-2.4.1/mjpegdec/bds/mjpegdec_1_358:height,579:height_#ff_mjpeg_decode_sof#.slicer.c'
p855
(lp856
I65
aI75
aI78
aI90
asS'../newslicerffmpeg/CVE-2013-7017/ffmpeg-2.0.1/jpeg2000/arr/jpeg2000_1_296:lut_gain_#ff_jpeg2000_init_component#.slicer.c'
p857
(lp858
I53
aI96
asS'../newslicerffmpeg/CVE-2015-1872/ffmpeg-2.5.3/mjpegdec/bds/mjpegdec_13_516:s,617:s_#ff_mjpeg_decode_sof#.slicer.c'
p859
(lp860
I216
aI218
asS'../newslicerffmpeg/CVE-2014-2099/ffmpeg-2.1.3/msrle/api/msrle_1_127:ptr,127:buf,127:linesize,127:ptr,133:buf,127:linesize_#msrle_decode_frame#.slicer.c'
p861
(lp862
I15
asS'../newslicerffmpeg/CVE-2014-8543/ffmpeg-2.4.1/mmvideo/bds/mmvideo_2_105:run_length,115:run_length_#mm_decode_intra#.slicer.c'
p863
(lp864
sS'../newslicerffmpeg/CVE-2013-7017/ffmpeg-2.0.1/jpeg2000/point/jpeg2000_4_286:qntsty,310:qntsty,311:qntsty_#ff_jpeg2000_init_component#.slicer.c'
p865
(lp866
I53
aI96
asS'../newslicerffmpeg/CVE-2016-2330/ffmpeg-2.8.2/gif/point/gif_4_140:bytestream,141:bytestream,142:bytestream,143:bytestream,144:bytestream,147:bytestream,150:bytestream,175:bytestream,204:bytestream,205:bytestream,207:bytestream,211:bytestream_#gif_image_write_image#.slicer.c'
p867
(lp868
sS'../newslicerffmpeg/CVE-2011-3362/ffmpeg-0.8.1/cavsdec/bds/cavsdec_3_132:level,132:level,132:mask,132:mask,140:level,140:level,132:mask,132:mask_#decode_residual_block#.slicer.c'
p869
(lp870
sS'../newslicerffmpeg/CVE-2013-7017/ffmpeg-2.0.1/jpeg2000/point/jpeg2000_1_203:codsty,209:codsty,210:codsty,216:codsty,227:codsty,231:codsty,232:codsty,243:codsty,244:codsty,296:codsty,339:codsty,341:codsty,357:codsty,359:codsty_#ff_jpeg2000_init_component#.slicer.c'
p871
(lp872
I53
aI96
asS'../newslicerffmpeg/CVE-2014-5271/ffmpeg-2.3.2/proresenc_kostya/point/proresenc_kostya_4_929:avctx,946:avctx,961:avctx,962:avctx_#encode_frame#.slicer.c'
p873
(lp874
I9
aI10
asS'../newslicerffmpeg/CVE-2013-7009/ffmpeg-2.0.1/rpza/bds/rpza_8_159:stream_ptr,215:stream_ptr_#rpza_decode_stream#.slicer.c'
p875
(lp876
I23
aI52
aI83
aI94
asS'../newslicerffmpeg/CVE-2013-0868/ffmpeg-1.1.1/huffyuvdec/api/huffyuvdec_8_230:s,230:i,235:s,230:i_#read_old_huffman_tables#.slicer.c'
p877
(lp878
sS'../newslicerffmpeg/CVE-2011-3945/ffmpeg-0.8.9/kgv1dec/arr/kgv1dec_1_73:offsets_#decode_frame#.slicer.c'
p879
(lp880
I19
asS'../newslicerffmpeg/CVE-2011-3934/ffmpeg-0.9.4/vp3/api/vp3_2_1821:s,1821:s1,1821:c_fragment_count,1821:s,1829:s,1829:s1,1821:c_fragment_count,1829:s_#vp3_update_thread_context#.slicer.c'
p881
(lp882
sS'../newslicerffmpeg/CVE-2013-3674/ffmpeg-1.2/cdgraphics/point/cdgraphics_2_278:avctx,294:avctx,345:avctx_#cdg_decode_frame#.slicer.c'
p883
(lp884
sS'../newslicerffmpeg/CVE-2013-7011/ffmpeg-2.0.1/ffv1dec/bds/ffv1dec_3_709:fs,709:f,721:fs,738:f_#read_header#.slicer.c'
p885
(lp886
I58
aI59
aI60
aI61
asS'../newslicerffmpeg/CVE-2014-8546/ffmpeg-2.4.1/cinepak/bds/cinepak_17_258:ip2,258:ip2_#cinepak_decode_vectors#.slicer.c'
p887
(lp888
sS'../newslicerffmpeg/CVE-2011-3362/ffmpeg-0.8.1/cavsdec/arr/cavsdec_2_141:run_buf,143:run_buf_#decode_residual_block#.slicer.c'
p889
(lp890
sS'../newslicerffmpeg/CVE-2010-3429/ffmpeg-0.6/flicvideo/bds/flicvideo_3_179:frame_size,404:frame_size_#flic_decode_frame_8BPP#.slicer.c'
p891
(lp892
I64
aI77
asS'../newslicerffmpeg/CVE-2013-0844/ffmpeg-1.0.3/adpcm/bds/adpcm_28_945:shift_left,945:byte,950:shift_left,1243:byte_#adpcm_decode_frame#.slicer.c'
p893
(lp894
sS'../newslicerffmpeg/CVE-2013-7024/ffmpeg-2.0.2/jpeg2000dec/bds/jpeg2000dec_6_1275:dst,1275:line,1275:x,1275:pixelsize,1275:compno,1275:planar,1340:dst,1275:line,1333:x,1340:pixelsize,1333:compno,1321:planar_#jpeg2000_decode_tile#.slicer.c'
p895
(lp896
I217
aI220
aI248
aI251
asS'../newslicerffmpeg/CVE-2012-6616/ffmpeg-1.0.1/movtextdec/bds/movtextdec_1_86:end,86:ptr,86:ptr,86:avpkt,86:end,87:ptr,87:ptr,106:avpkt_#mov_text_decode_frame#.slicer.c'
p897
(lp898
I7
asS'../newslicerffmpeg/CVE-2016-2330/ffmpeg-2.8.2/gif/bds/gif_8_209:len,209:size,209:len,209:size_#gif_image_write_image#.slicer.c'
p899
(lp900
sS'../newslicerffmpeg/CVE-2013-7014/ffmpeg-2.0.1/pngdsp/bds/pngdsp_1_34:i,40:i_#add_bytes_l2_c#.slicer.c'
p901
(lp902
I3
asS'../newslicerffmpeg/CVE-2013-3674/ffmpeg-1.2/cdgraphics/point/cdgraphics_5_359:got_frame,361:got_frame_#cdg_decode_frame#.slicer.c'
p903
(lp904
I15
asS'../newslicerffmpeg/CVE-2011-3973/ffmpeg-0.8.2/cavsdec/point/cavsdec_8_236:d,239:d,241:d_#decode_mb_i#.slicer.c'
p905
(lp906
sS'../newslicerffmpeg/CVE-2013-7010/ffmpeg-2.0.1/dsputil/point/dsputil_1_1935:src,1940:src_#add_bytes_c#.slicer.c'
p907
(lp908
I3
asS'../newslicerffmpeg/CVE-2012-0850/ffmpeg-0.9/aacsbr/api/aacsbr_1_1192:v0,1192:v0,1192:saved_samples,1197:v0,1197:v0,1192:saved_samples_#sbr_qmf_synthesis#.slicer.c'
p909
(lp910
I5
asS'../newslicerffmpeg/CVE-2012-2790/ffmpeg-0.10.5/alsdec/bds/alsdec_5_768:current_res,768:bd,768:start,829:current_res,825:bd,828:start_#read_var_block_data#.slicer.c'
p911
(lp912
I150
aI152
asS'../newslicerffmpeg/CVE-2014-8546/ffmpeg-2.4.1/cinepak/api/cinepak_6_199:ip3,199:p,258:ip3,238:p_#cinepak_decode_vectors#.slicer.c'
p913
(lp914
sS'../newslicerffmpeg/CVE-2014-5271/ffmpeg-2.3.2/proresenc_kostya/bds/proresenc_kostya_8_573:total_size,573:sizes,573:i,575:total_size,573:sizes,573:i_#encode_slice#.slicer.c'
p915
(lp916
I25
aI26
aI81
asS'../newslicerffmpeg/CVE-2013-0851/ffmpeg-1.0/eamad/point/eamad_3_235:avctx,258:avctx,258:avctx,261:avctx,263:avctx,285:avctx,286:avctx_#decode_frame#.slicer.c'
p917
(lp918
I7
asS'../newslicerffmpeg/CVE-2014-8546/ffmpeg-2.4.1/cinepak/api/cinepak_22_245:ip1,245:cb1,257:ip1,247:cb1_#cinepak_decode_vectors#.slicer.c'
p919
(lp920
sS'../newslicerffmpeg/CVE-2013-7024/ffmpeg-2.0.2/jpeg2000dec/bds/jpeg2000dec_14_1321:dst,1321:linel,1321:x,1321:pixelsize,1321:compno,1321:planar,1340:dst,1321:linel,1333:x,1340:pixelsize,1333:compno,1321:planar_#jpeg2000_decode_tile#.slicer.c'
p921
(lp922
I217
aI220
asS'../newslicerffmpeg/CVE-2012-6616/ffmpeg-1.0.1/movtextdec/point/movtextdec_3_86:ptr,86:ptr,87:ptr_#mov_text_decode_frame#.slicer.c'
p923
(lp924
I7
asS'../newslicerffmpeg/CVE-2014-8546/ffmpeg-2.4.1/cinepak/bds/cinepak_2_163:x,163:x_#cinepak_decode_vectors#.slicer.c'
p925
(lp926
sS'../newslicerffmpeg/CVE-2014-5271/ffmpeg-2.3.2/proresenc_kostya/point/proresenc_kostya_9_957:tmp,986:tmp_#encode_frame#.slicer.c'
p927
(lp928
I9
aI10
asS'../newslicerffmpeg/CVE-2012-2776/ffmpeg-0.10.5/indeo3/arr/indeo3_1_441:delta,443:delta_#decode_cell_data#.slicer.c'
p929
(lp930
I59
aI60
asS'../newslicerffmpeg/CVE-2014-8547/ffmpeg-2.4.1/gifdec/bds/gifdec_14_282:ptr,282:linesize,295:ptr,295:linesize_#gif_read_image#.slicer.c'
p931
(lp932
I96
aI97
aI98
aI99
aI102
aI103
aI104
aI105
asS'../newslicerffmpeg/CVE-2011-3973/ffmpeg-0.8.2/cavsdec/point/cavsdec_6_198:h,205:h,206:h,214:h,221:h,230:h,231:h,231:h,232:h,232:h,236:h,236:h,237:h,238:h,238:h,239:h,240:h,241:h,241:h,241:h,245:h,246:h,246:h,246:h,246:h,247:h,247:h,248:h,248:h,248:h,248:h,249:h,249:h,251:h,252:h,253:h_#decode_mb_i#.slicer.c'
p933
(lp934
sS'../newslicerffmpeg/CVE-2013-7014/ffmpeg-2.0.1/pngdsp/point/pngdsp_3_37:dst,40:dst_#add_bytes_l2_c#.slicer.c'
p935
(lp936
I3
asS'../newslicerffmpeg/CVE-2014-8547/ffmpeg-2.4.1/gifdec/point/gifdec_4_249:ptr1,276:ptr1,285:ptr1_#gif_read_image#.slicer.c'
p937
(lp938
I96
aI97
aI98
aI99
aI102
aI103
aI104
aI105
asS'../newslicerffmpeg/CVE-2013-0845/ffmpeg-1.0.3/alsdec/point/alsdec_2_561:bd,562:bd,563:bd,568:bd,570:bd,574:bd_#read_const_block_data#.slicer.c'
p939
(lp940
I20
aI21
asS'../newslicerffmpeg/CVE-2010-3429/ffmpeg-0.6/flicvideo/bds/flicvideo_31_526:stream_ptr,668:stream_ptr_#flic_decode_frame_15_16BPP#.slicer.c'
p941
(lp942
I56
aI60
aI97
aI103
asS'../newslicerffmpeg/CVE-2010-3429/ffmpeg-0.6/flicvideo/point/flicvideo_8_687:data_size_#flic_decode_frame_15_16BPP#.slicer.c'
p943
(lp944
I56
aI60
aI97
aI103
asS'../newslicerffmpeg/CVE-2014-8546/ffmpeg-2.4.1/cinepak/point/cinepak_12_216:cb3,222:cb3,223:cb3,227:cb3,228:cb3,241:cb3,243:cb3_#cinepak_decode_vectors#.slicer.c'
p945
(lp946
sS'../newslicerffmpeg/CVE-2013-7024/ffmpeg-2.0.2/jpeg2000dec/bds/jpeg2000dec_2_1212:nb_precincts,1212:rlevel,1212:rlevel,1214:nb_precincts,1212:rlevel,1212:rlevel_#jpeg2000_decode_tile#.slicer.c'
p947
(lp948
sS'../newslicerffmpeg/CVE-2010-3429/ffmpeg-0.6/flicvideo/point/flicvideo_6_506:s,550:s,555:s,602:s,607:s,645:s,645:s_#flic_decode_frame_15_16BPP#.slicer.c'
p949
(lp950
I56
aI60
aI97
aI103
asS'../newslicerffmpeg/CVE-2012-2797/ffmpeg-0.10.14/mpegaudiodec/point/mpegaudiodec_8_1962:bp,1965:bp,1966:bp,1970:bp,1971:bp,1972:bp_#decode_frame_mp3on4#.slicer.c'
p951
(lp952
I7
asS'../newslicerffmpeg/CVE-2016-2328/ffmpeg-2.8.2/swscale_unscaled/arr/swscale_unscaled_4_1110:dstStride,1111:dstStride,1112:dstStride,1117:dstStride,1118:dstStride,1119:dstStride_#bayer_to_yv12_wrapper#.slicer.c'
p953
(lp954
sS'../newslicerffmpeg/CVE-2013-0864/ffmpeg-1.1.1/gifdec/bds/gifdec_4_126:dst_px,126:dst_py,126:l,130:dst_px,126:dst_py,126:l_#gif_copy_img_rect#.slicer.c'
p955
(lp956
I51
asS'../newslicerffmpeg/CVE-2013-0845/ffmpeg-1.0.3/alsdec/point/alsdec_8_970:gb_#read_block#.slicer.c'
p957
(lp958
sS'../newslicerffmpeg/CVE-2012-2776/ffmpeg-0.10.5/indeo3/bds/indeo3_17_538:block,538:blk_row_offset,538:block,538:blk_row_offset_#decode_cell_data#.slicer.c'
p959
(lp960
I59
aI60
asS'../newslicerffmpeg/CVE-2011-3973/ffmpeg-0.8.2/cavsdec/bds/cavsdec_5_212:predpred,212:rem_mode,212:rem_mode,212:predpred,214:predpred,212:rem_mode,212:rem_mode,214:predpred_#decode_mb_i#.slicer.c'
p961
(lp962
sS'../newslicerffmpeg/CVE-2013-0844/ffmpeg-1.0.3/adpcm/bds/adpcm_59_1254:samples,1254:st,1254:samples,1254:st_#adpcm_decode_frame#.slicer.c'
p963
(lp964
sS'../newslicerffmpeg/CVE-2013-0844/ffmpeg-1.0.3/adpcm/point/adpcm_9_1091:s,1095:s,1099:s,1103:s,1104:s,1106:s_#adpcm_decode_frame#.slicer.c'
p965
(lp966
sS'../newslicerffmpeg/CVE-2013-7024/ffmpeg-2.0.2/jpeg2000dec/bds/jpeg2000dec_17_1333:x,1333:s,1333:compno,1333:x,1333:s,1333:compno_#jpeg2000_decode_tile#.slicer.c'
p967
(lp968
I217
aI220
asS'../newslicerffmpeg/CVE-2014-8546/ffmpeg-2.4.1/cinepak/api/cinepak_2_196:ip3,196:p,258:ip3,238:p_#cinepak_decode_vectors#.slicer.c'
p969
(lp970
sS'../newslicerffmpeg/CVE-2013-0844/ffmpeg-1.0.3/adpcm/bds/adpcm_22_869:smp,869:avctx,869:smp,1199:avctx_#adpcm_decode_frame#.slicer.c'
p971
(lp972
I223
asS'../newslicerffmpeg/CVE-2014-8547/ffmpeg-2.4.1/gifdec/bds/gifdec_8_262:px,262:ptr,262:idx,262:s,264:px,295:ptr,264:idx,306:s_#gif_read_image#.slicer.c'
p973
(lp974
I96
aI97
aI98
aI99
aI102
aI103
aI104
aI105
asS'../newslicerffmpeg/CVE-2011-3945/ffmpeg-0.8.9/kgv1dec/point/kgv1dec_3_139:data_size_#decode_frame#.slicer.c'
p975
(lp976
I19
asS'../newslicerffmpeg/CVE-2014-8545/ffmpeg-2.4.1/pngdec/bds/pngdec_6_806:i,806:s,867:i,885:s_#decode_frame#.slicer.c'
p977
(lp978
I90
asS'../newslicerffmpeg/CVE-2016-2330/ffmpeg-2.8.2/gif/point/gif_5_146:palette_#gif_image_write_image#.slicer.c'
p979
(lp980
sS'../newslicerffmpeg/CVE-2011-3934/ffmpeg-0.9.4/vp3/api/vp3_1_1820:s,1820:s1,1820:y_fragment_count,1820:s,1829:s,1829:s1,1820:y_fragment_count,1829:s_#vp3_update_thread_context#.slicer.c'
p981
(lp982
sS'../newslicerffmpeg/CVE-2013-7024/ffmpeg-2.0.2/jpeg2000dec/bds/jpeg2000dec_1_1206:bandpos,1206:bandno,1206:reslevelno,1224:bandpos,1206:bandno,1206:reslevelno_#jpeg2000_decode_tile#.slicer.c'
p983
(lp984
sS'../newslicerffmpeg/CVE-2015-1872/ffmpeg-2.5.3/mjpegdec/bds/mjpegdec_3_395:pix_fmt_id,395:pix_fmt_id,540:pix_fmt_id,540:pix_fmt_id_#ff_mjpeg_decode_sof#.slicer.c'
p985
(lp986
sS'../newslicerffmpeg/CVE-2012-2776/ffmpeg-0.10.5/indeo3/bds/indeo3_8_491:rle_blocks,491:code,506:rle_blocks,494:code_#decode_cell_data#.slicer.c'
p987
(lp988
I59
aI60
asS'../newslicerffmpeg/CVE-2016-2330/ffmpeg-2.8.2/gif/bds/gif_4_190:ptr,190:linesize,208:ptr,196:linesize_#gif_image_write_image#.slicer.c'
p989
(lp990
sS'../newslicerffmpeg/CVE-2013-3670/ffmpeg-1.2/vmdav/point/vmdav_4_169:ps_end,172:ps_end,180:ps_end,185:ps_end,191:ps_end_#rle_unpack#.slicer.c'
p991
(lp992
I136
aI137
asS'../newslicerffmpeg/CVE-2015-8363/ffmpeg-2.8.2/jpeg2000dec/api/jpeg2000dec_1_1810:s,1810:s,1814:s,1814:s_#jpeg2000_dec_cleanup#.slicer.c'
p993
(lp994
sS'../newslicerffmpeg/CVE-2014-8543/ffmpeg-2.4.1/mmvideo/bds/mmvideo_3_115:x,115:run_length,118:x,115:run_length_#mm_decode_intra#.slicer.c'
p995
(lp996
sS'../newslicerffmpeg/CVE-2016-2213/ffmpeg-2.8.2/jpeg2000dec/bds/jpeg2000dec_13_1774:dst,1774:pixelsize,1784:dst,1784:pixelsize_#jpeg2000_decode_tile#.slicer.c'
p997
(lp998
I181
aI182
aI183
aI184
aI185
asS'../newslicerffmpeg/CVE-2014-8545/ffmpeg-2.4.1/pngdec/point/pngdec_4_539:buf_#decode_frame#.slicer.c'
p999
(lp1000
sS'../newslicerffmpeg/CVE-2014-2097/ffmpeg-2.1.3/takdec/arr/takdec_1_835:mc_dmodes_#tak_decode_frame#.slicer.c'
p1001
(lp1002
I29
aI30
aI31
asS'../newslicerffmpeg/CVE-2014-9676/ffmpeg-2.1.4/segment/point/segment_4_672:oc,707:oc,716:oc_#seg_write_packet#.slicer.c'
p1003
(lp1004
I119
asS'../newslicerffmpeg/CVE-2014-8546/ffmpeg-2.4.1/cinepak/api/cinepak_16_206:ip0,206:p,257:ip0,238:p_#cinepak_decode_vectors#.slicer.c'
p1005
(lp1006
sS'../newslicerffmpeg/CVE-2011-3934/ffmpeg-0.9.4/vp3/bds/vp3_2_1819:c_fragment_count,1819:s,1819:s,1821:c_fragment_count,1829:s,1829:s_#vp3_update_thread_context#.slicer.c'
p1007
(lp1008
sS'../newslicerffmpeg/CVE-2013-0844/ffmpeg-1.0.3/adpcm/bds/adpcm_16_842:v1,842:v,846:v1,1141:v_#adpcm_decode_frame#.slicer.c'
p1009
(lp1010
I223
asS'../newslicerffmpeg/CVE-2012-2794/ffmpeg-0.10.5/indeo5/point/indeo5_4_458:ref_mb,493:ref_mb,496:ref_mb,497:ref_mb,499:ref_mb,500:ref_mb,504:ref_mb,505:ref_mb,518:ref_mb,518:ref_mb,530:ref_mb,533:ref_mb,534:ref_mb,536:ref_mb,537:ref_mb,554:ref_mb,555:ref_mb_#decode_mb_info#.slicer.c'
p1011
(lp1012
sS'../newslicerffmpeg/CVE-2013-0844/ffmpeg-1.0.3/adpcm/bds/adpcm_37_1053:next_sample,1053:byte,1053:shift,1064:next_sample,1243:byte,1107:shift_#adpcm_decode_frame#.slicer.c'
p1013
(lp1014
sS'../newslicerffmpeg/CVE-2011-3934/ffmpeg-0.9.4/vp3/point/vp3_3_1810:s,1814:s,1818:s,1818:s,1819:s,1819:s,1820:s,1820:s,1821:s,1821:s,1829:s_#vp3_update_thread_context#.slicer.c'
p1015
(lp1016
sS'../newslicerffmpeg/CVE-2010-3429/ffmpeg-0.6/flicvideo/bds/flicvideo_14_307:pixel_ptr,307:pixel_skip,365:pixel_ptr,308:pixel_skip_#flic_decode_frame_8BPP#.slicer.c'
p1017
(lp1018
I64
aI77
asS'../newslicerffmpeg/CVE-2012-2790/ffmpeg-0.10.5/alsdec/bds/alsdec_8_802:res,802:max_msb,802:cur_k,821:res,804:max_msb,817:cur_k_#read_var_block_data#.slicer.c'
p1019
(lp1020
I150
aI152
asS'../newslicerffmpeg/CVE-2011-3973/ffmpeg-0.8.2/cavsdec/point/cavsdec_2_125:gb,128:gb_#decode_residual_block#.slicer.c'
p1021
(lp1022
sS'../newslicerffmpeg/CVE-2012-6615/ffmpeg-1.0.1/ass_split/api/ass_split_1_429:callbacks,429:priv,429:x1,429:y1,429:x2,429:y2,429:t1,429:t2,455:callbacks,455:priv,435:x1,435:y1,429:x2,429:y2,429:t1,429:t2_#ff_ass_split_override_codes#.slicer.c'
p1023
(lp1024
I5
asS'../newslicerffmpeg/CVE-2014-8546/ffmpeg-2.4.1/cinepak/bds/cinepak_18_258:ip3,258:ip3_#cinepak_decode_vectors#.slicer.c'
p1025
(lp1026
sS'../newslicerffmpeg/CVE-2010-3429/ffmpeg-0.6/flicvideo/bds/flicvideo_20_471:stream_ptr,668:stream_ptr_#flic_decode_frame_15_16BPP#.slicer.c'
p1027
(lp1028
I56
aI60
aI97
aI103
asS'../newslicerffmpeg/CVE-2013-0856/ffmpeg-1.0/alac/point/alac_4_241:lpc_coefs,253:lpc_coefs_#lpc_prediction#.slicer.c'
p1029
(lp1030
I88
asS'../newslicerffmpeg/CVE-2013-0863/ffmpeg-1.1.1/sanm/bds/sanm_9_680:prev2,680:stride,680:prev2,680:stride_#old_codec47#.slicer.c'
p1031
(lp1032
I13
aI14
asS'../newslicerffmpeg/CVE-2013-3671/ffmpeg-1.2/log/point/log_1_171:ptr,171:ptr,176:ptr,181:ptr,185:ptr,185:ptr,186:ptr_#format_line#.slicer.c'
p1033
(lp1034
I11
asS'../newslicerffmpeg/CVE-2014-8546/ffmpeg-2.4.1/cinepak/point/cinepak_10_214:cb1,232:cb1,233:cb1,237:cb1,238:cb1,245:cb1,247:cb1_#cinepak_decode_vectors#.slicer.c'
p1035
(lp1036
sS'../newslicerffmpeg/CVE-2014-8541/ffmpeg-2.4.1/mjpegdec/arr/mjpegdec_2_304:v_count,304:v_count,309:v_count,313:v_count,314:v_count,320:v_count,341:v_count,341:v_count,346:v_count,346:v_count_#ff_mjpeg_decode_sof#.slicer.c'
p1037
(lp1038
I65
aI75
aI78
aI90
asS'../newslicerffmpeg/CVE-2012-6615/ffmpeg-1.0.1/ass_split/bds/ass_split_4_439:buf,439:len,449:buf,439:len_#ff_ass_split_override_codes#.slicer.c'
p1039
(lp1040
I5
asS'../newslicerffmpeg/CVE-2013-0864/ffmpeg-1.1.1/gifdec/bds/gifdec_5_127:src_pr,127:src_px,127:w,129:src_pr,130:src_px,127:w_#gif_copy_img_rect#.slicer.c'
p1041
(lp1042
I51
asS'../newslicerffmpeg/CVE-2012-2775/ffmpeg-0.10.5/alsdec/arr/alsdec_6_771:k,772:k,789:k_#read_var_block_data#.slicer.c'
p1043
(lp1044
I150
aI152
asS'../newslicerffmpeg/CVE-2013-0844/ffmpeg-1.0.3/adpcm/point/adpcm_11_1265:got_frame_ptr_#adpcm_decode_frame#.slicer.c'
p1045
(lp1046
I241
asS'../newslicerffmpeg/CVE-2014-8546/ffmpeg-2.4.1/cinepak/point/cinepak_8_192:ip0,192:ip0,193:ip0,193:ip0,203:ip0,203:ip0,206:ip0,206:ip0,234:ip0,246:ip0,247:ip0,254:ip0,257:ip0_#cinepak_decode_vectors#.slicer.c'
p1047
(lp1048
sS'../newslicerffmpeg/CVE-2014-8547/ffmpeg-2.4.1/gifdec/bds/gifdec_13_281:y1,290:y1_#gif_read_image#.slicer.c'
p1049
(lp1050
I96
aI97
aI98
aI99
aI102
aI103
aI104
aI105
asS'../newslicerffmpeg/CVE-2013-0864/ffmpeg-1.1.1/gifdec/point/gifdec_2_120:dst_#gif_copy_img_rect#.slicer.c'
p1051
(lp1052
sS'../newslicerffmpeg/CVE-2012-2794/ffmpeg-0.10.5/indeo5/bds/indeo5_9_559:offs,559:row_offset,559:offs,559:row_offset_#decode_mb_info#.slicer.c'
p1053
(lp1054
sS'../newslicerffmpeg/CVE-2012-2794/ffmpeg-0.10.5/indeo5/point/indeo5_5_466:ctx,477:ctx,478:ctx,486:ctx,487:ctx,487:ctx,506:ctx,509:ctx,513:ctx,520:ctx,521:ctx,521:ctx,541:ctx,541:ctx,544:ctx,544:ctx,562:ctx_#decode_mb_info#.slicer.c'
p1055
(lp1056
sS'../newslicerffmpeg/CVE-2014-8546/ffmpeg-2.4.1/cinepak/bds/cinepak_8_198:p,238:p_#cinepak_decode_vectors#.slicer.c'
p1057
(lp1058
sS'../newslicerffmpeg/CVE-2013-0851/ffmpeg-1.0/eamad/point/eamad_5_255:s,279:s,281:s,281:s,282:s,283:s,283:s,285:s,285:s,285:s,286:s,286:s,286:s,287:s_#decode_frame#.slicer.c'
p1059
(lp1060
I7
asS'../newslicerffmpeg/CVE-2012-2794/ffmpeg-0.10.5/indeo5/bds/indeo5_6_543:mv_y,548:mv_y_#decode_mb_info#.slicer.c'
p1061
(lp1062
sS'../newslicerffmpeg/CVE-2012-2790/ffmpeg-0.10.5/alsdec/bds/alsdec_3_647:s,647:k,829:s,789:k_#read_var_block_data#.slicer.c'
p1063
(lp1064
I150
aI152
asS'../newslicerffmpeg/CVE-2012-2775/ffmpeg-0.10.5/alsdec/point/alsdec_4_619:sconf,619:sconf,622:sconf,622:sconf,640:sconf,641:sconf,650:sconf,661:sconf,662:sconf,664:sconf,667:sconf,675:sconf,695:sconf,696:sconf,721:sconf,755:sconf,832:sconf_#read_var_block_data#.slicer.c'
p1065
(lp1066
I150
aI152
asS'../newslicerffmpeg/CVE-2014-9316/ffmpeg-2.4.3/mjpegdec/bds/mjpegdec_3_1581:len,1734:len_#mjpeg_decode_app#.slicer.c'
p1067
(lp1068
I111
aI112
aI113
aI114
asS'../newslicerffmpeg/CVE-2013-7011/ffmpeg-2.0.1/ffv1dec/api/ffv1dec_2_732:p,732:f,732:idx,732:p,744:p,738:f,733:idx,744:p_#read_header#.slicer.c'
p1069
(lp1070
I58
aI59
aI60
aI61
asS'../newslicerffmpeg/CVE-2012-2790/ffmpeg-0.10.5/alsdec/bds/alsdec_13_825:current_res,825:bd,825:start,829:current_res,825:bd,828:start_#read_var_block_data#.slicer.c'
p1071
(lp1072
I150
aI152
asS'../newslicerffmpeg/CVE-2014-8545/ffmpeg-2.4.1/pngdec/bds/pngdec_1_598:s,885:s_#decode_frame#.slicer.c'
p1073
(lp1074
I90
asS'../newslicerffmpeg/CVE-2013-0844/ffmpeg-1.0.3/adpcm/bds/adpcm_31_951:next_right_sample,951:byte,951:shift_right,963:next_right_sample,1243:byte,951:shift_right_#adpcm_decode_frame#.slicer.c'
p1075
(lp1076
sS'../newslicerffmpeg/CVE-2013-0856/ffmpeg-1.0/alac/bds/alac_8_255:error_val,255:val,255:lpc_quant,255:j,255:error_val,255:val,255:lpc_quant,255:j_#lpc_prediction#.slicer.c'
p1077
(lp1078
I88
asS'../newslicerffmpeg/CVE-2012-2775/ffmpeg-0.10.5/alsdec/bds/alsdec_10_813:res,821:res_#read_var_block_data#.slicer.c'
p1079
(lp1080
I150
aI152
asS'../newslicerffmpeg/CVE-2012-2790/ffmpeg-0.10.5/alsdec/bds/alsdec_6_777:current_res,777:sb_length,829:current_res,828:sb_length_#read_var_block_data#.slicer.c'
p1081
(lp1082
I150
aI152
asS'../newslicerffmpeg/CVE-2015-8363/ffmpeg-2.8.2/jpeg2000dec/point/jpeg2000dec_7_1877:codsty,1880:codsty,1894:codsty_#jpeg2000_read_main_headers#.slicer.c'
p1083
(lp1084
sS'../newslicerffmpeg/CVE-2014-5271/ffmpeg-2.3.2/proresenc_kostya/point/proresenc_kostya_13_1046:got_packet_#encode_frame#.slicer.c'
p1085
(lp1086
I9
aI10
aI74
asS'../newslicerffmpeg/CVE-2016-2213/ffmpeg-2.8.2/jpeg2000dec/point/jpeg2000dec_7_1659:prec,1659:prec,1661:prec_#jpeg2000_decode_tile#.slicer.c'
p1087
(lp1088
sS'../newslicerffmpeg/CVE-2016-2327/ffmpeg-2.8.2/pngenc/point/pngenc_8_729:temp_bytestream_end,790:temp_bytestream_end_#apng_encode_frame#.slicer.c'
p1089
(lp1090
I282
aI283
asS'../newslicerffmpeg/CVE-2016-2213/ffmpeg-2.8.2/jpeg2000dec/bds/jpeg2000dec_2_1653:nb_precincts,1653:rlevel,1653:rlevel,1655:nb_precincts,1653:rlevel,1653:rlevel_#jpeg2000_decode_tile#.slicer.c'
p1091
(lp1092
sS'../newslicerffmpeg/CVE-2013-0874/ffmpeg-1.1.2/tiff/api/tiff_1_224:ap,224:component_len,224:dp,224:i,224:sep,229:ap,225:component_len,224:dp,224:i,231:sep_#doubles2str#.slicer.c'
p1093
(lp1094
I41
aI43
aI235
asS'../newslicerffmpeg/CVE-2016-2328/ffmpeg-2.8.2/swscale_unscaled/bds/swscale_unscaled_3_1111:dstU,1111:dstStride,1118:dstU,1119:dstStride_#bayer_to_yv12_wrapper#.slicer.c'
p1095
(lp1096
I31
asS'../newslicerffmpeg/CVE-2013-3670/ffmpeg-1.2/vmdav/point/vmdav_3_168:src,169:src,186:src,192:src,202:src_#rle_unpack#.slicer.c'
p1097
(lp1098
I137
aI139
asS'../newslicerffmpeg/CVE-2015-8363/ffmpeg-2.8.2/jpeg2000dec/api/jpeg2000dec_3_1812:s,1812:s,1814:s,1814:s_#jpeg2000_dec_cleanup#.slicer.c'
p1099
(lp1100
sS'../newslicerffmpeg/CVE-2015-1872/ffmpeg-2.5.3/mjpegdec/api/mjpegdec_3_353:s,353:h_count,353:h_count,617:s,353:h_count,353:h_count_#ff_mjpeg_decode_sof#.slicer.c'
p1101
(lp1102
I217
aI219
asS'../newslicerffmpeg/CVE-2013-0856/ffmpeg-1.0/alac/point/alac_1_203:buffer_out,206:buffer_out,212:buffer_out,213:buffer_out,220:buffer_out,220:buffer_out,228:buffer_out,228:buffer_out,244:buffer_out_#lpc_prediction#.slicer.c'
p1103
(lp1104
I89
asS'../newslicerffmpeg/CVE-2013-0874/ffmpeg-1.1.2/tiff/point/tiff_5_239:sep,239:sep,240:sep,246:sep,246:sep,249:sep_#shorts2str#.slicer.c'
p1105
(lp1106
I22
aI27
asS'../newslicerffmpeg/CVE-2014-8546/ffmpeg-2.4.1/cinepak/bds/cinepak_9_201:p,238:p_#cinepak_decode_vectors#.slicer.c'
p1107
(lp1108
sS'../newslicerffmpeg/CVE-2013-0844/ffmpeg-1.0.3/adpcm/point/adpcm_8_1026:samplesC,1043:samplesC,1044:samplesC,1065:samplesC,1066:samplesC_#adpcm_decode_frame#.slicer.c'
p1109
(lp1110
sS'../newslicerffmpeg/CVE-2016-2328/ffmpeg-2.8.2/swscale_unscaled/point/swscale_unscaled_3_1109:srcPtr,1116:srcPtr_#bayer_to_yv12_wrapper#.slicer.c'
p1111
(lp1112
I31
asS'../newslicerffmpeg/CVE-2013-7024/ffmpeg-2.0.2/jpeg2000dec/bds/jpeg2000dec_5_1274:x,1274:tile,1274:compno,1274:s,1333:x,1320:tile,1333:compno,1333:s_#jpeg2000_decode_tile#.slicer.c'
p1113
(lp1114
I217
aI220
aI248
aI251
asS'../newslicerffmpeg/CVE-2016-2327/ffmpeg-2.8.2/pngenc/point/pngenc_10_785:best_bytestream,788:best_bytestream_#apng_encode_frame#.slicer.c'
p1115
(lp1116
I282
aI283
asS'../newslicerffmpeg/CVE-2016-2330/ffmpeg-2.8.2/gif/bds/gif_2_133:width,133:x_end,133:x_start,159:width,133:x_end,179:x_start_#gif_image_write_image#.slicer.c'
p1117
(lp1118
sS'../newslicerffmpeg/CVE-2013-0844/ffmpeg-1.0.3/adpcm/bds/adpcm_46_1106:i,1228:i_#adpcm_decode_frame#.slicer.c'
p1119
(lp1120
sS'../newslicerffmpeg/CVE-2011-3934/ffmpeg-0.9.4/vp3/point/vp3_4_1810:s1,1820:s1,1821:s1,1829:s1_#vp3_update_thread_context#.slicer.c'
p1121
(lp1122
sS'../newslicerffmpeg/CVE-2014-8546/ffmpeg-2.4.1/cinepak/api/cinepak_18_241:ip3,241:cb3,258:ip3,243:cb3_#cinepak_decode_vectors#.slicer.c'
p1123
(lp1124
sS'../newslicerffmpeg/CVE-2012-2797/ffmpeg-0.10.14/mpegaudiodec/point/mpegaudiodec_4_1922:outptr,1952:outptr_#decode_frame_mp3on4#.slicer.c'
p1125
(lp1126
I7
asS'../newslicerffmpeg/CVE-2014-8546/ffmpeg-2.4.1/cinepak/api/cinepak_24_247:ip0,247:cb1,257:ip0,247:cb1_#cinepak_decode_vectors#.slicer.c'
p1127
(lp1128
sS'../newslicerffmpeg/CVE-2013-7019/ffmpeg-2.0.2/jpeg2000dec/api/jpeg2000dec_2_410:c,410:c,410:c,410:c_#get_cox#.slicer.c'
p1129
(lp1130
I23
aI24
aI25
asS'../newslicerffmpeg/CVE-2013-7024/ffmpeg-2.0.2/jpeg2000dec/bds/jpeg2000dec_9_1287:x,1287:s,1287:compno,1333:x,1333:s,1333:compno_#jpeg2000_decode_tile#.slicer.c'
p1131
(lp1132
I217
aI220
aI248
aI251
asS'../newslicerffmpeg/CVE-2011-3362/ffmpeg-0.8.1/cavsdec/bds/cavsdec_2_128:level,128:esc_code,128:run,128:r,128:r,128:run,140:level,128:esc_code,141:run,138:r,138:r,141:run_#decode_residual_block#.slicer.c'
p1133
(lp1134
sS'../newslicerffmpeg/CVE-2013-0844/ffmpeg-1.0.3/adpcm/bds/adpcm_38_1056:next_sample,1056:byte,1056:shift,1064:next_sample,1243:byte,1107:shift_#adpcm_decode_frame#.slicer.c'
p1135
(lp1136
sS'../newslicerffmpeg/CVE-2014-8547/ffmpeg-2.4.1/gifdec/bds/gifdec_16_290:y1,290:y1_#gif_read_image#.slicer.c'
p1137
(lp1138
I96
aI97
aI98
aI99
aI102
aI103
aI104
aI105
asS'../newslicerffmpeg/CVE-2016-2328/ffmpeg-2.8.2/swscale_unscaled/bds/swscale_unscaled_7_1117:dstY,1117:dstStride,1117:dstY,1119:dstStride_#bayer_to_yv12_wrapper#.slicer.c'
p1139
(lp1140
I31
asS'../newslicerffmpeg/CVE-2013-0851/ffmpeg-1.0/eamad/bds/eamad_2_256:buf,283:buf_#decode_frame#.slicer.c'
p1141
(lp1142
I7
asS'../newslicerffmpeg/CVE-2012-2775/ffmpeg-0.10.5/alsdec/point/alsdec_6_745:avctx_#read_var_block_data#.slicer.c'
p1143
(lp1144
I150
aI152
asS'../newslicerffmpeg/CVE-2016-2213/ffmpeg-2.8.2/jpeg2000dec/point/jpeg2000dec_2_1633:tile,1634:tile,1686:tile,1687:tile,1698:tile,1699:tile,1703:tile,1710:tile,1712:tile,1715:tile,1747:tile,1748:tile,1753:tile,1759:tile,1761:tile,1764:tile_#jpeg2000_decode_tile#.slicer.c'
p1145
(lp1146
I183
aI184
aI185
aI186
aI187
asS'../newslicerffmpeg/CVE-2014-8541/ffmpeg-2.4.1/mjpegdec/api/mjpegdec_3_345:s,345:h_count,345:h_count,590:s,345:h_count,345:h_count_#ff_mjpeg_decode_sof#.slicer.c'
p1147
(lp1148
I65
aI75
aI78
aI90
asS'../newslicerffmpeg/CVE-2013-0859/ffmpeg-1.0/tiff/point/tiff_2_263:s,263:s_#add_doubles_metadata#.slicer.c'
p1149
(lp1150
I8
asS'../newslicerffmpeg/CVE-2013-7023/ffmpeg-2.0.1/parser/point/parser_2_230:buf_size,244:buf_size,248:buf_size_#ff_combine_frame#.slicer.c'
p1151
(lp1152
I10
asS'../newslicerffmpeg/CVE-2014-8547/ffmpeg-2.4.1/gifdec/bds/gifdec_12_276:ptr,276:ptr1,276:linesize,276:y1,295:ptr,285:ptr1,295:linesize,290:y1_#gif_read_image#.slicer.c'
p1153
(lp1154
I96
aI97
aI98
aI99
aI102
aI103
aI104
aI105
asS'../newslicerffmpeg/CVE-2014-8546/ffmpeg-2.4.1/cinepak/point/cinepak_11_215:cb2,220:cb2,221:cb2,225:cb2,226:cb2,240:cb2,242:cb2_#cinepak_decode_vectors#.slicer.c'
p1155
(lp1156
sS'../newslicerffmpeg/CVE-2016-2328/ffmpeg-2.8.2/swscale_unscaled/bds/swscale_unscaled_4_1112:dstV,1112:dstStride,1119:dstV,1119:dstStride_#bayer_to_yv12_wrapper#.slicer.c'
p1157
(lp1158
I31
asS'../newslicerffmpeg/CVE-2013-3670/ffmpeg-1.2/vmdav/bds/vmdav_2_177:src_count,200:src_count_#rle_unpack#.slicer.c'
p1159
(lp1160
I136
aI137
asS'../newslicerffmpeg/CVE-2013-4264/ffmpeg-2.0/g2meet/bds/g2meet_14_420:cblocks,420:coded,420:cblocks,423:coded_#kempf_decode_tile#.slicer.c'
p1161
(lp1162
I140
asS'../newslicerffmpeg/CVE-2013-0844/ffmpeg-1.0.3/adpcm/bds/adpcm_12_700:samples,700:avctx,1254:samples,1199:avctx_#adpcm_decode_frame#.slicer.c'
p1163
(lp1164
I223
asS'../newslicerffmpeg/CVE-2016-2328/ffmpeg-2.8.2/swscale_unscaled/arr/swscale_unscaled_3_1109:srcStride,1116:srcStride_#bayer_to_yv12_wrapper#.slicer.c'
p1165
(lp1166
sS'../newslicerffmpeg/CVE-2012-2775/ffmpeg-0.10.5/alsdec/bds/alsdec_1_625:log2_sub_blocks,625:gb,638:log2_sub_blocks,833:gb_#read_var_block_data#.slicer.c'
p1167
(lp1168
I150
aI152
asS'../newslicerffmpeg/CVE-2014-9676/ffmpeg-2.1.4/segment/point/segment_1_638:s,640:s,666:s,669:s,707:s_#seg_write_packet#.slicer.c'
p1169
(lp1170
sS'../newslicerffmpeg/CVE-2010-3429/ffmpeg-0.6/flicvideo/bds/flicvideo_37_648:stream_ptr,648:chunk_size,668:stream_ptr,676:chunk_size_#flic_decode_frame_15_16BPP#.slicer.c'
p1171
(lp1172
I56
aI60
aI97
aI103
asS'../newslicerffmpeg/CVE-2012-2790/ffmpeg-0.10.5/alsdec/point/alsdec_7_768:current_res,774:current_res,777:current_res,785:current_res,793:current_res,821:current_res,825:current_res,829:current_res_#read_var_block_data#.slicer.c'
p1173
(lp1174
I150
aI152
asS'../newslicerffmpeg/CVE-2013-4264/ffmpeg-2.0/g2meet/bds/g2meet_7_390:zsize,390:src,390:src,398:zsize,414:src,414:src_#kempf_decode_tile#.slicer.c'
p1175
(lp1176
I140
asS'../newslicerffmpeg/CVE-2015-1872/ffmpeg-2.5.3/mjpegdec/bds/mjpegdec_7_447:s,617:s_#ff_mjpeg_decode_sof#.slicer.c'
p1177
(lp1178
I216
aI218
asS'../newslicerffmpeg/CVE-2013-0844/ffmpeg-1.0.3/adpcm/bds/adpcm_45_1106:s2,1106:s,1106:i,1110:s2,1106:s,1228:i_#adpcm_decode_frame#.slicer.c'
p1179
(lp1180
sS'../newslicerffmpeg/CVE-2014-5271/ffmpeg-2.3.2/proresenc_kostya/point/proresenc_kostya_6_946:pkt,1044:pkt,1045:pkt_#encode_frame#.slicer.c'
p1181
(lp1182
I9
aI10
aI74
asS'../newslicerffmpeg/CVE-2015-1872/ffmpeg-2.5.3/mjpegdec/api/mjpegdec_1_309:h_count,309:h_count,353:h_count,353:h_count_#ff_mjpeg_decode_sof#.slicer.c'
p1183
(lp1184
sS'../newslicerffmpeg/CVE-2010-3429/ffmpeg-0.6/flicvideo/bds/flicvideo_15_308:pixel_countdown,308:pixel_skip,366:pixel_countdown,308:pixel_skip_#flic_decode_frame_8BPP#.slicer.c'
p1185
(lp1186
I64
aI77
asS'../newslicerffmpeg/CVE-2013-0864/ffmpeg-1.1.1/gifdec/point/gifdec_3_121:src_py,124:src_py,124:src_py,125:src_py_#gif_copy_img_rect#.slicer.c'
p1187
(lp1188
I51
asS'../newslicerffmpeg/CVE-2014-8546/ffmpeg-2.4.1/cinepak/bds/cinepak_12_254:ip1,257:ip1_#cinepak_decode_vectors#.slicer.c'
p1189
(lp1190
sS'../newslicerffmpeg/CVE-2012-0850/ffmpeg-0.9/aacsbr/arr/aacsbr_1_1200:X,1200:X,1201:X,1201:X,1203:X,1210:X,1210:X,1212:X,1213:X_#sbr_qmf_synthesis#.slicer.c'
p1191
(lp1192
I5
asS'../newslicerffmpeg/CVE-2010-3429/ffmpeg-0.6/flicvideo/bds/flicvideo_16_383:stream_ptr,383:chunk_size,396:stream_ptr,404:chunk_size_#flic_decode_frame_8BPP#.slicer.c'
p1193
(lp1194
I64
aI77
asS'../newslicerffmpeg/CVE-2012-0850/ffmpeg-0.9/aacsbr/bds/aacsbr_4_1229:out,1229:div,1229:out,1229:div_#sbr_qmf_synthesis#.slicer.c'
p1195
(lp1196
I5
asS'../newslicerffmpeg/CVE-2011-3973/ffmpeg-0.8.2/cavsdec/bds/cavsdec_2_129:level,129:esc_code,129:run,129:r,129:r,129:run,141:level,129:esc_code,142:run,139:r,139:r,142:run_#decode_residual_block#.slicer.c'
p1197
(lp1198
sS'../newslicerffmpeg/CVE-2012-6615/ffmpeg-1.0.1/ass_split/api/ass_split_2_432:callbacks,432:priv,432:x1,432:y1,432:x1,432:y1,455:callbacks,455:priv,435:x1,435:y1,435:x1,435:y1_#ff_ass_split_override_codes#.slicer.c'
p1199
(lp1200
I5
asS'../newslicerffmpeg/CVE-2011-3973/ffmpeg-0.8.2/cavsdec/arr/cavsdec_7_237:top,239:top_#decode_mb_i#.slicer.c'
p1201
(lp1202
sS'../newslicerffmpeg/CVE-2016-2330/ffmpeg-2.8.2/gif/bds/gif_6_196:ptr,196:linesize,208:ptr,196:linesize_#gif_image_write_image#.slicer.c'
p1203
(lp1204
sS'../newslicerffmpeg/CVE-2011-3973/ffmpeg-0.8.2/cavsdec/bds/cavsdec_7_442:align,442:gb,447:align,449:gb_#check_for_slice#.slicer.c'
p1205
(lp1206
sS'../newslicerffmpeg/CVE-2014-9316/ffmpeg-2.4.3/mjpegdec/point/mjpegdec_2_1683:aligned,1684:aligned_#mjpeg_decode_app#.slicer.c'
p1207
(lp1208
I111
aI112
aI113
aI114
asS'../newslicerffmpeg/CVE-2013-0844/ffmpeg-1.0.3/adpcm/bds/adpcm_4_647:samples,647:avctx,1254:samples,1199:avctx_#adpcm_decode_frame#.slicer.c'
p1209
(lp1210
sS'../newslicerffmpeg/CVE-2014-8543/ffmpeg-2.4.1/mmvideo/bds/mmvideo_4_119:y,119:half_vert,119:y,119:half_vert_#mm_decode_intra#.slicer.c'
p1211
(lp1212
sS'../newslicerffmpeg/CVE-2011-3973/ffmpeg-0.8.2/cavsdec/bds/cavsdec_6_236:d,236:h,236:h,236:block,241:d,253:h,253:h,240:block_#decode_mb_i#.slicer.c'
p1213
(lp1214
sS'../newslicerffmpeg/CVE-2010-3429/ffmpeg-0.6/flicvideo/bds/flicvideo_4_184:stream_ptr,396:stream_ptr_#flic_decode_frame_8BPP#.slicer.c'
p1215
(lp1216
I64
aI77
asS'../newslicerffmpeg/CVE-2013-0853/ffmpeg-1.0/wavpack/bds/wavpack_5_1224:frame_size,1224:buf,1240:frame_size,1240:buf_#wavpack_decode_frame#.slicer.c'
p1217
(lp1218
I24
asS'../newslicerffmpeg/CVE-2012-6617/ffmpeg-1.0/ffserver/point/ffserver_1_2949:stream,2964:stream_#prepare_sdp_description#.slicer.c'
p1219
(lp1220
I5
asS'../newslicerffmpeg/CVE-2014-5271/ffmpeg-2.3.2/proresenc_kostya/bds/proresenc_kostya_11_958:buf,1041:buf_#encode_frame#.slicer.c'
p1221
(lp1222
I9
aI10
aI74
asS'../newslicerffmpeg/CVE-2013-0844/ffmpeg-1.0.3/adpcm/bds/adpcm_42_1102:m,1103:m_#adpcm_decode_frame#.slicer.c'
p1223
(lp1224
sS'../newslicerffmpeg/CVE-2011-3973/ffmpeg-0.8.2/cavsdec/point/cavsdec_13_641:avctx,649:avctx_#cavs_decode_frame#.slicer.c'
p1225
(lp1226
sS'../newslicerffmpeg/CVE-2010-3429/ffmpeg-0.6/flicvideo/bds/flicvideo_18_404:frame_size,404:chunk_size,404:frame_size,404:chunk_size_#flic_decode_frame_8BPP#.slicer.c'
p1227
(lp1228
I64
aI77
asS'../newslicerffmpeg/CVE-2014-8547/ffmpeg-2.4.1/gifdec/bds/gifdec_5_192:pw,192:s,192:left,260:pw,306:s,216:left_#gif_read_image#.slicer.c'
p1229
(lp1230
I96
aI97
aI98
aI99
aI102
aI103
aI104
aI105
asS'../newslicerffmpeg/CVE-2013-0874/ffmpeg-1.1.2/tiff/point/tiff_7_243:ap0,249:ap0,249:ap0,250:ap0_#shorts2str#.slicer.c'
p1231
(lp1232
I22
aI27
asS'../newslicerffmpeg/CVE-2014-5271/ffmpeg-2.3.2/proresenc_kostya/arr/proresenc_kostya_2_1026:sizes,1028:sizes,1029:sizes_#encode_frame#.slicer.c'
p1233
(lp1234
I9
aI10
aI74
asS'../newslicerffmpeg/CVE-2013-0844/ffmpeg-1.0.3/adpcm/point/adpcm_6_860:c_#adpcm_decode_frame#.slicer.c'
p1235
(lp1236
sS'../newslicerffmpeg/CVE-2012-2775/ffmpeg-0.10.5/alsdec/bds/alsdec_13_825:current_res,825:bd,825:start,829:current_res,825:bd,828:start_#read_var_block_data#.slicer.c'
p1237
(lp1238
I150
aI152
asS'../newslicerffmpeg/CVE-2012-2790/ffmpeg-0.10.5/alsdec/bds/alsdec_7_785:current_res,785:bd,785:start,829:current_res,825:bd,828:start_#read_var_block_data#.slicer.c'
p1239
(lp1240
I150
aI152
asS'../newslicerffmpeg/CVE-2011-3362/ffmpeg-0.8.1/cavsdec/arr/cavsdec_1_140:level_buf,143:level_buf_#decode_residual_block#.slicer.c'
p1241
(lp1242
sS'../newslicerffmpeg/CVE-2012-2794/ffmpeg-0.10.5/indeo5/bds/indeo5_4_469:y,469:band,474:y,556:band_#decode_mb_info#.slicer.c'
p1243
(lp1244
sS'../newslicerffmpeg/CVE-2011-3973/ffmpeg-0.8.2/cavsdec/arr/cavsdec_1_141:level_buf,144:level_buf_#decode_residual_block#.slicer.c'
p1245
(lp1246
sS'../newslicerffmpeg/CVE-2013-0859/ffmpeg-1.0/tiff/point/tiff_4_264:sep_#add_doubles_metadata#.slicer.c'
p1247
(lp1248
I8
asS'../newslicerffmpeg/CVE-2013-0859/ffmpeg-1.0/tiff/point/tiff_3_264:ap,266:ap_#add_doubles_metadata#.slicer.c'
p1249
(lp1250
I8
asS'../newslicerffmpeg/CVE-2014-8547/ffmpeg-2.4.1/gifdec/bds/gifdec_6_202:height,202:s,202:top,283:height,306:s,216:top_#gif_read_image#.slicer.c'
p1251
(lp1252
I96
aI97
aI98
aI99
aI102
aI103
aI104
aI105
asS'../newslicerffmpeg/CVE-2014-2097/ffmpeg-2.1.3/takdec/api/takdec_2_730:avctx,864:avctx_#tak_decode_frame#.slicer.c'
p1253
(lp1254
I29
aI30
aI31
asS'../newslicerffmpeg/CVE-2015-8363/ffmpeg-2.8.2/jpeg2000dec/point/jpeg2000dec_6_1851:tp,1852:tp,1856:tp,1856:tp,1857:tp_#jpeg2000_read_main_headers#.slicer.c'
p1255
(lp1256
sS'../newslicerffmpeg/CVE-2011-3973/ffmpeg-0.8.2/cavsdec/arr/cavsdec_8_241:ff_cavs_intra_dec_#decode_mb_i#.slicer.c'
p1257
(lp1258
sS'../newslicerffmpeg/CVE-2012-2779/ffmpeg-0.10.5/indeo5/point/indeo5_1_328:ctx,333:ctx,333:ctx,334:ctx,334:ctx,335:ctx,340:ctx,340:ctx,342:ctx,343:ctx,347:ctx,348:ctx,348:ctx,350:ctx,350:ctx,350:ctx,352:ctx,352:ctx,352:ctx,355:ctx,356:ctx,359:ctx,359:ctx,359:ctx,362:ctx,365:ctx_#decode_pic_hdr#.slicer.c'
p1259
(lp1260
I175
asS'../newslicerffmpeg/CVE-2013-0851/ffmpeg-1.0/eamad/point/eamad_1_233:avpkt_#decode_frame#.slicer.c'
p1261
(lp1262
sS'../newslicerffmpeg/CVE-2012-2790/ffmpeg-0.10.5/alsdec/point/alsdec_4_619:sconf,619:sconf,622:sconf,622:sconf,640:sconf,641:sconf,650:sconf,661:sconf,662:sconf,664:sconf,667:sconf,675:sconf,695:sconf,696:sconf,721:sconf,755:sconf,832:sconf_#read_var_block_data#.slicer.c'
p1263
(lp1264
I150
aI152
asS'../newslicerffmpeg/CVE-2012-6615/ffmpeg-1.0.1/ass_split/bds/ass_split_2_391:len,391:close,439:len,393:close_#ff_ass_split_override_codes#.slicer.c'
p1265
(lp1266
I5
asS'../newslicerffmpeg/CVE-2014-8546/ffmpeg-2.4.1/cinepak/point/cinepak_2_144:strip,144:strip,163:strip,163:strip,188:strip,213:strip,214:strip,215:strip,216:strip_#cinepak_decode_vectors#.slicer.c'
p1267
(lp1268
sS'../newslicerffmpeg/CVE-2013-4264/ffmpeg-2.0/g2meet/bds/g2meet_8_390:src,414:src_#kempf_decode_tile#.slicer.c'
p1269
(lp1270
I140
asS'../newslicerffmpeg/CVE-2011-3950/ffmpeg-0.9.4/diracdec/point/diracdec_2_1725:buf,1730:buf,1750:buf,1754:buf_#dirac_decode_data_unit#.slicer.c'
p1271
(lp1272
I67
asS'../newslicerffmpeg/CVE-2012-2779/ffmpeg-0.10.5/indeo5/point/indeo5_2_343:avctx,359:avctx_#decode_pic_hdr#.slicer.c'
p1273
(lp1274
I175
asS'../newslicerffmpeg/CVE-2013-0844/ffmpeg-1.0.3/adpcm/bds/adpcm_35_1044:samplesC,1044:avctx,1066:samplesC,1199:avctx_#adpcm_decode_frame#.slicer.c'
p1275
(lp1276
sS'../newslicerffmpeg/CVE-2011-3936/ffmpeg-0.8.10/dv/bds/dv_2_116:freq,116:as_pack,116:freq,117:as_pack_#dv_extract_audio#.slicer.c'
p1277
(lp1278
sS'../newslicerffmpeg/CVE-2016-2213/ffmpeg-2.8.2/jpeg2000dec/bds/jpeg2000dec_4_1668:y,1668:cblk,1668:band,1761:y,1675:cblk,1675:band_#jpeg2000_decode_tile#.slicer.c'
p1279
(lp1280
I181
aI182
aI183
aI184
aI185
asS'../newslicerffmpeg/CVE-2013-0845/ffmpeg-1.0.3/alsdec/point/alsdec_1_557:ctx,558:ctx,559:ctx_#read_const_block_data#.slicer.c'
p1281
(lp1282
I12
aI13
asS'../newslicerffmpeg/CVE-2013-4264/ffmpeg-2.0/g2meet/bds/g2meet_2_363:src,414:src_#kempf_decode_tile#.slicer.c'
p1283
(lp1284
I141
asS'../newslicerffmpeg/CVE-2013-7011/ffmpeg-2.0.1/ffv1dec/point/ffv1dec_2_565:c,571:c,574:c,574:c,577:c,580:c,582:c,583:c,584:c,585:c,671:c,677:c,679:c,681:c,685:c,703:c,704:c,705:c,706:c,724:c_#read_header#.slicer.c'
p1285
(lp1286
I58
aI59
aI60
aI61
asS'../newslicerffmpeg/CVE-2013-0864/ffmpeg-1.1.1/gifdec/bds/gifdec_1_124:src_py,124:linesize,125:src_py,124:linesize_#gif_copy_img_rect#.slicer.c'
p1287
(lp1288
I51
asS'../newslicerffmpeg/CVE-2013-0863/ffmpeg-1.1.1/sanm/bds/sanm_1_656:dst,656:stride,678:dst,680:stride_#old_codec47#.slicer.c'
p1289
(lp1290
I13
aI14
asS'../newslicerffmpeg/CVE-2013-4264/ffmpeg-2.0/g2meet/arr/g2meet_2_378:pal,381:pal,434:pal_#kempf_decode_tile#.slicer.c'
p1291
(lp1292
sS'../newslicerffmpeg/CVE-2016-2328/ffmpeg-2.8.2/swscale_unscaled/bds/swscale_unscaled_9_1119:dstV,1119:dstStride,1119:dstV,1119:dstStride_#bayer_to_yv12_wrapper#.slicer.c'
p1293
(lp1294
I31
asS'../newslicerffmpeg/CVE-2013-0844/ffmpeg-1.0.3/adpcm/bds/adpcm_10_695:n,695:nb_samples,1239:n,1228:nb_samples_#adpcm_decode_frame#.slicer.c'
p1295
(lp1296
I223
asS'../newslicerffmpeg/CVE-2014-8541/ffmpeg-2.4.1/mjpegdec/bds/mjpegdec_7_402:s,402:j,590:s,403:j_#ff_mjpeg_decode_sof#.slicer.c'
p1297
(lp1298
I65
aI75
aI78
aI90
asS'../newslicerffmpeg/CVE-2014-8546/ffmpeg-2.4.1/cinepak/bds/cinepak_13_255:ip2,258:ip2_#cinepak_decode_vectors#.slicer.c'
p1299
(lp1300
sS'../newslicerffmpeg/CVE-2012-2790/ffmpeg-0.10.5/alsdec/bds/alsdec_9_804:res,804:max_msb,804:cur_k,821:res,804:max_msb,817:cur_k_#read_var_block_data#.slicer.c'
p1301
(lp1302
I150
aI152
asS'../newslicerffmpeg/CVE-2011-3973/ffmpeg-0.8.2/cavsdec/point/cavsdec_15_649:s,664:s,668:s,683:s,705:s,706:s_#cavs_decode_frame#.slicer.c'
p1303
(lp1304
I14
asS'../newslicerffmpeg/CVE-2011-3973/ffmpeg-0.8.2/cavsdec/point/cavsdec_5_147:dst_#decode_residual_block#.slicer.c'
p1305
(lp1306
sS'../newslicerffmpeg/CVE-2013-3671/ffmpeg-1.2/log/arr/log_1_172:part,172:part,172:part,179:part,184:part,189:part,191:part,191:part,191:part_#format_line#.slicer.c'
p1307
(lp1308
I12
asS'../newslicerffmpeg/CVE-2012-0850/ffmpeg-0.9/aacsbr/bds/aacsbr_3_1209:n,1216:n_#sbr_qmf_synthesis#.slicer.c'
p1309
(lp1310
I5
asS'../newslicerffmpeg/CVE-2012-2775/ffmpeg-0.10.5/alsdec/bds/alsdec_11_816:res,816:cur_k,821:res,817:cur_k_#read_var_block_data#.slicer.c'
p1311
(lp1312
I150
aI152
asS'../newslicerffmpeg/CVE-2011-3929/ffmpeg-0.8.9/dv/arr/dv_1_337:ppcm_#dv_produce_packet#.slicer.c'
p1313
(lp1314
I59
asS'../newslicerffmpeg/CVE-2012-2776/ffmpeg-0.10.5/indeo3/bds/indeo3_12_526:ref,526:row_offset,526:num_lines,526:v_zoom,526:ref,527:row_offset,527:num_lines,527:v_zoom_#decode_cell_data#.slicer.c'
p1315
(lp1316
I59
aI60
asS'../newslicerffmpeg/CVE-2013-0874/ffmpeg-1.1.2/tiff/point/tiff_4_224:dp_#doubles2str#.slicer.c'
p1317
(lp1318
I41
aI43
aI235
asS'../newslicerffmpeg/CVE-2011-3362/ffmpeg-0.8.1/cavsdec/point/cavsdec_4_143:block,146:block_#decode_residual_block#.slicer.c'
p1319
(lp1320
sS'../newslicerffmpeg/CVE-2012-2776/ffmpeg-0.10.5/indeo3/point/indeo3_6_441:delta_tab,443:delta_tab,447:delta_tab,451:delta_tab,455:delta_tab,456:delta_tab,457:delta_tab_#decode_cell_data#.slicer.c'
p1321
(lp1322
I59
aI60
asS'../newslicerffmpeg/CVE-2016-2328/ffmpeg-2.8.2/swscale_unscaled/bds/swscale_unscaled_8_1118:dstU,1118:dstStride,1118:dstU,1119:dstStride_#bayer_to_yv12_wrapper#.slicer.c'
p1323
(lp1324
I31
asS'../newslicerffmpeg/CVE-2012-6615/ffmpeg-1.0.1/ass_split/arr/ass_split_5_396:c_num,397:c_num,399:c_num,402:c_num,403:c_num,405:c_num_#ff_ass_split_override_codes#.slicer.c'
p1325
(lp1326
I5
asS'../newslicerffmpeg/CVE-2013-3671/ffmpeg-1.2/log/point/log_4_178:parent,178:parent,180:parent,180:parent,180:parent_#format_line#.slicer.c'
p1327
(lp1328
sS'../newslicerffmpeg/CVE-2013-7017/ffmpeg-2.0.1/jpeg2000/bds/jpeg2000_3_321:band,452:band_#ff_jpeg2000_init_component#.slicer.c'
p1329
(lp1330
I53
aI96
asS'../newslicerffmpeg/CVE-2014-5271/ffmpeg-2.3.2/proresenc_kostya/bds/proresenc_kostya_18_1021:buf,1021:slice_hdr_size,1041:buf,1032:slice_hdr_size_#encode_frame#.slicer.c'
p1331
(lp1332
I9
aI10
aI74
asS'../newslicerffmpeg/CVE-2010-3429/ffmpeg-0.6/flicvideo/bds/flicvideo_39_676:frame_size,676:chunk_size,676:frame_size,676:chunk_size_#flic_decode_frame_15_16BPP#.slicer.c'
p1333
(lp1334
I56
aI60
aI97
aI103
asS'../newslicerffmpeg/CVE-2012-6615/ffmpeg-1.0.1/ass_split/bds/ass_split_1_381:buf,449:buf_#ff_ass_split_override_codes#.slicer.c'
p1335
(lp1336
I5
asS'../newslicerffmpeg/CVE-2013-7009/ffmpeg-2.0.1/rpza/bds/rpza_1_99:chunk_size,99:s,99:stream_ptr,112:chunk_size,214:s,215:stream_ptr_#rpza_decode_stream#.slicer.c'
p1337
(lp1338
I23
aI52
aI83
aI94
asS'../newslicerffmpeg/CVE-2014-8546/ffmpeg-2.4.1/cinepak/api/cinepak_13_205:ip1,205:p,257:ip1,238:p_#cinepak_decode_vectors#.slicer.c'
p1339
(lp1340
sS'../newslicerffmpeg/CVE-2013-4264/ffmpeg-2.0/g2meet/bds/g2meet_3_364:dst,364:c,432:dst,433:c_#kempf_decode_tile#.slicer.c'
p1341
(lp1342
I191
asS'../newslicerffmpeg/CVE-2013-0868/ffmpeg-1.1.1/huffyuvdec/api/huffyuvdec_4_223:s,223:s,235:s,235:s_#read_old_huffman_tables#.slicer.c'
p1343
(lp1344
sS'../newslicerffmpeg/CVE-2016-2327/ffmpeg-2.8.2/pngenc/point/pngenc_11_816:avctx,825:avctx,834:avctx,844:avctx_#encode_apng#.slicer.c'
p1345
(lp1346
sS'../newslicerffmpeg/CVE-2010-3429/ffmpeg-0.6/flicvideo/bds/flicvideo_12_293:stream_ptr,396:stream_ptr_#flic_decode_frame_8BPP#.slicer.c'
p1347
(lp1348
I64
aI77
asS'../newslicerffmpeg/CVE-2016-2327/ffmpeg-2.8.2/pngenc/point/pngenc_13_902:last_fctl_chunk_start_#encode_apng#.slicer.c'
p1349
(lp1350
sS'../newslicerffmpeg/CVE-2012-2794/ffmpeg-0.10.5/indeo5/point/indeo5_1_455:band,455:band,459:band,466:band,469:band,472:band,486:band,486:band,493:band,504:band,512:band,512:band,516:band,517:band,519:band,519:band,530:band,556:band_#decode_mb_info#.slicer.c'
p1351
(lp1352
sS'../newslicerffmpeg/CVE-2013-4264/ffmpeg-2.0/g2meet/bds/g2meet_11_408:bstride,408:width,423:bstride,434:width_#kempf_decode_tile#.slicer.c'
p1353
(lp1354
I187
asS'../newslicerffmpeg/CVE-2015-8363/ffmpeg-2.8.2/jpeg2000dec/point/jpeg2000dec_3_1804:codsty_#jpeg2000_dec_cleanup#.slicer.c'
p1355
(lp1356
sS'../newslicerffmpeg/CVE-2012-2790/ffmpeg-0.10.5/alsdec/bds/alsdec_12_817:res,817:gb,817:cur_k,821:res,833:gb,817:cur_k_#read_var_block_data#.slicer.c'
p1357
(lp1358
I150
aI152
asS'../newslicerffmpeg/CVE-2014-8545/ffmpeg-2.4.1/pngdec/bds/pngdec_9_849:pd,849:s,868:pd,885:s_#decode_frame#.slicer.c'
p1359
(lp1360
I90
asS'../newslicerffmpeg/CVE-2013-7009/ffmpeg-2.0.1/rpza/bds/rpza_2_100:stream_ptr,215:stream_ptr_#rpza_decode_stream#.slicer.c'
p1361
(lp1362
I23
aI52
aI83
aI94
asS'../newslicerffmpeg/CVE-2015-1872/ffmpeg-2.5.3/mjpegdec/bds/mjpegdec_10_452:s,617:s_#ff_mjpeg_decode_sof#.slicer.c'
p1363
(lp1364
I216
aI218
asS'../newslicerffmpeg/CVE-2013-7024/ffmpeg-2.0.2/jpeg2000dec/bds/jpeg2000dec_13_1320:x,1320:tile,1320:compno,1320:s,1333:x,1320:tile,1333:compno,1333:s_#jpeg2000_decode_tile#.slicer.c'
p1365
(lp1366
I217
aI220
asS'../newslicerffmpeg/CVE-2012-2779/ffmpeg-0.10.5/indeo5/point/indeo5_7_806:data_size_#decode_frame#.slicer.c'
p1367
(lp1368
I41
asS'../newslicerffmpeg/CVE-2016-2213/ffmpeg-2.8.2/jpeg2000dec/point/jpeg2000dec_4_1640:comp,1671:comp,1673:comp,1675:comp,1682:comp,1682:comp,1682:comp,1700:comp,1701:comp,1749:comp,1750:comp_#jpeg2000_decode_tile#.slicer.c'
p1369
(lp1370
I182
aI183
aI184
aI185
aI186
asS'../newslicerffmpeg/CVE-2012-6616/ffmpeg-1.0.1/movtextdec/point/movtextdec_6_104:sub_#mov_text_decode_frame#.slicer.c'
p1371
(lp1372
I7
asS'../newslicerffmpeg/CVE-2014-8546/ffmpeg-2.4.1/cinepak/bds/cinepak_11_254:ip0,257:ip0_#cinepak_decode_vectors#.slicer.c'
p1373
(lp1374
sS'../newslicerffmpeg/CVE-2014-2097/ffmpeg-2.1.3/takdec/bds/takdec_3_816:ch_mask,816:nbit,816:ch_mask,816:nbit_#tak_decode_frame#.slicer.c'
p1375
(lp1376
I29
aI30
aI31
asS'../newslicerffmpeg/CVE-2011-3949/ffmpeg-0.9.4/diracdec/point/diracdec_1_934:s,939:s,939:s,940:s,944:s,945:s,948:s,949:s,954:s,957:s,958:s,959:s,962:s,963:s,968:s,969:s,969:s,983:s,990:s_#dirac_unpack_idwt_params#.slicer.c'
p1377
(lp1378
I69
aI97
aI98
aI99
aI103
aI104
aI105
aI106
asS'../newslicerffmpeg/CVE-2011-3973/ffmpeg-0.8.2/cavsdec/arr/cavsdec_4_145:ff_cavs_dequant_shift_#decode_residual_block#.slicer.c'
p1379
(lp1380
sS'../newslicerffmpeg/CVE-2014-5271/ffmpeg-2.3.2/proresenc_kostya/bds/proresenc_kostya_13_994:buf,1041:buf_#encode_frame#.slicer.c'
p1381
(lp1382
I9
aI10
aI74
asS'../newslicerffmpeg/CVE-2013-7014/ffmpeg-2.0.1/pngdsp/point/pngdsp_1_35:src1,40:src1_#add_bytes_l2_c#.slicer.c'
p1383
(lp1384
I3
asS'../newslicerffmpeg/CVE-2014-2097/ffmpeg-2.1.3/takdec/bds/takdec_2_809:ch_mask,809:s,809:i,816:ch_mask,853:s,853:i_#tak_decode_frame#.slicer.c'
p1385
(lp1386
I29
aI30
aI31
asS'../newslicerffmpeg/CVE-2016-2327/ffmpeg-2.8.2/pngenc/point/pngenc_12_826:s,827:s,834:s,834:s,856:s,869:s,870:s,870:s,875:s,876:s,877:s,886:s,893:s,894:s,895:s,896:s,897:s,898:s,899:s,900:s,901:s,912:s,928:s,930:s,931:s,931:s,931:s,943:s_#encode_apng#.slicer.c'
p1387
(lp1388
sS'../newslicerffmpeg/CVE-2013-4264/ffmpeg-2.0/g2meet/bds/g2meet_12_417:coded,417:bitbuf,423:coded,419:bitbuf_#kempf_decode_tile#.slicer.c'
p1389
(lp1390
I140
asS'../newslicerffmpeg/CVE-2013-3674/ffmpeg-1.2/cdgraphics/bds/cdgraphics_1_301:inst,351:inst_#cdg_decode_frame#.slicer.c'
p1391
(lp1392
sS'../newslicerffmpeg/CVE-2014-8545/ffmpeg-2.4.1/pngdec/bds/pngdec_4_785:i,785:s,867:i,885:s_#decode_frame#.slicer.c'
p1393
(lp1394
I90
asS'../newslicerffmpeg/CVE-2012-2775/ffmpeg-0.10.5/alsdec/point/alsdec_1_596:ctx,597:ctx,598:ctx,737:ctx,747:ctx,749:ctx,775:ctx,775:ctx,832:ctx_#read_var_block_data#.slicer.c'
p1395
(lp1396
I150
aI152
asS'../newslicerffmpeg/CVE-2013-0878/ffmpeg-1.1.2/targa/point/targa_3_44:start_#advance_line#.slicer.c'
p1397
(lp1398
I132
asS'../newslicerffmpeg/CVE-2015-8363/ffmpeg-2.8.2/jpeg2000dec/point/jpeg2000dec_5_1850:tile,1851:tile,1851:tile_#jpeg2000_read_main_headers#.slicer.c'
p1399
(lp1400
sS'../newslicerffmpeg/CVE-2014-8546/ffmpeg-2.4.1/cinepak/api/cinepak_14_205:ip1,205:p,257:ip1,238:p_#cinepak_decode_vectors#.slicer.c'
p1401
(lp1402
sS'../newslicerffmpeg/CVE-2016-2327/ffmpeg-2.8.2/pngenc/point/pngenc_14_904:got_packet_#encode_apng#.slicer.c'
p1403
(lp1404
sS'../newslicerffmpeg/CVE-2014-8541/ffmpeg-2.4.1/mjpegdec/bds/mjpegdec_2_382:pix_fmt_id,382:s,382:s,382:s,382:s,382:s,382:s,382:s,382:s,514:pix_fmt_id,590:s,590:s,590:s,590:s,590:s,590:s,590:s,590:s_#ff_mjpeg_decode_sof#.slicer.c'
p1405
(lp1406
I65
aI75
aI78
aI90
asS'../newslicerffmpeg/CVE-2013-4264/ffmpeg-2.0/g2meet/point/g2meet_4_388:src_end_#kempf_decode_tile#.slicer.c'
p1407
(lp1408
sS'../newslicerffmpeg/CVE-2013-0874/ffmpeg-1.1.2/tiff/point/tiff_2_218:ap,221:ap,222:ap,224:ap,229:ap_#doubles2str#.slicer.c'
p1409
(lp1410
I41
aI43
aI235
asS'../newslicerffmpeg/CVE-2013-7009/ffmpeg-2.0.1/rpza/bds/rpza_16_191:block_ptr,191:row_ptr,191:pixel_ptr,220:block_ptr,209:row_ptr,209:pixel_ptr_#rpza_decode_stream#.slicer.c'
p1411
(lp1412
I23
aI52
aI83
aI94
asS'../newslicerffmpeg/CVE-2011-3945/ffmpeg-0.8.9/kgv1dec/bds/kgv1dec_1_60:maxcnt,60:w,60:h,60:maxcnt,60:w,60:h_#decode_frame#.slicer.c'
p1413
(lp1414
sS'../newslicerffmpeg/CVE-2012-2790/ffmpeg-0.10.5/alsdec/bds/alsdec_11_816:res,816:cur_k,821:res,817:cur_k_#read_var_block_data#.slicer.c'
p1415
(lp1416
I150
aI152
asS'../newslicerffmpeg/CVE-2016-2327/ffmpeg-2.8.2/pngenc/bds/pngenc_2_877:s,943:s_#encode_apng#.slicer.c'
p1417
(lp1418
sS'../newslicerffmpeg/CVE-2013-7024/ffmpeg-2.0.2/jpeg2000dec/bds/jpeg2000dec_12_1317:y,1317:s,1317:compno,1317:y,1333:s,1333:compno_#jpeg2000_decode_tile#.slicer.c'
p1419
(lp1420
I217
aI220
asS'../newslicerffmpeg/CVE-2011-3945/ffmpeg-0.8.9/kgv1dec/point/kgv1dec_1_41:avctx,54:avctx,57:avctx,57:avctx,58:avctx_#decode_frame#.slicer.c'
p1421
(lp1422
sS'../newslicerffmpeg/CVE-2014-9316/ffmpeg-2.4.3/mjpegdec/bds/mjpegdec_1_1523:len,1734:len_#mjpeg_decode_app#.slicer.c'
p1423
(lp1424
I111
aI112
aI113
aI114
asS'../newslicerffmpeg/CVE-2013-0856/ffmpeg-1.0/alac/point/alac_2_206:error_buffer,212:error_buffer,220:error_buffer,228:error_buffer,235:error_buffer_#lpc_prediction#.slicer.c'
p1425
(lp1426
I89
asS'../newslicerffmpeg/CVE-2013-7009/ffmpeg-2.0.1/rpza/bds/rpza_17_199:block_ptr,199:row_inc,220:block_ptr,220:row_inc_#rpza_decode_stream#.slicer.c'
p1427
(lp1428
I23
aI52
aI83
aI94
asS'../newslicerffmpeg/CVE-2013-0863/ffmpeg-1.1.1/sanm/bds/sanm_6_673:i,673:i_#old_codec47#.slicer.c'
p1429
(lp1430
I13
aI14
asS'../newslicerffmpeg/CVE-2012-2790/ffmpeg-0.10.5/alsdec/arr/alsdec_1_641:s,643:s,643:s,646:s,647:s,650:s,652:s,652:s,747:s,749:s,771:s,771:s,772:s,790:s,829:s_#read_var_block_data#.slicer.c'
p1431
(lp1432
I150
aI152
asS'../newslicerffmpeg/CVE-2016-2213/ffmpeg-2.8.2/jpeg2000dec/bds/jpeg2000dec_1_1647:bandpos,1647:bandno,1647:reslevelno,1665:bandpos,1647:bandno,1647:reslevelno_#jpeg2000_decode_tile#.slicer.c'
p1433
(lp1434
sS'../newslicerffmpeg/CVE-2016-2213/ffmpeg-2.8.2/jpeg2000dec/bds/jpeg2000dec_5_1710:y,1710:tile,1710:compno,1710:s,1710:s,1710:compno,1761:y,1764:tile,1765:compno,1764:s,1764:s,1765:compno_#jpeg2000_decode_tile#.slicer.c'
p1435
(lp1436
I181
aI182
aI183
aI184
aI185
asS'../newslicerffmpeg/CVE-2012-2776/ffmpeg-0.10.5/indeo3/point/indeo3_7_441:delta,443:delta_#decode_cell_data#.slicer.c'
p1437
(lp1438
I59
aI60
asS'../newslicerffmpeg/CVE-2012-2790/ffmpeg-0.10.5/alsdec/bds/alsdec_1_625:log2_sub_blocks,625:gb,638:log2_sub_blocks,833:gb_#read_var_block_data#.slicer.c'
p1439
(lp1440
I150
aI152
asS'../newslicerffmpeg/CVE-2012-2776/ffmpeg-0.10.5/indeo3/point/indeo3_4_425:dst,527:dst_#decode_cell_data#.slicer.c'
p1441
(lp1442
I59
aI60
asS'../newslicerffmpeg/CVE-2013-7010/ffmpeg-2.0.1/dsputil/point/dsputil_3_1960:src1,1965:src1_#diff_bytes_c#.slicer.c'
p1443
(lp1444
I3
asS'../newslicerffmpeg/CVE-2013-0868/ffmpeg-1.1.1/huffyuvdec/bds/huffyuvdec_2_146:i,146:g,172:i,168:g_#generate_joint_tables#.slicer.c'
p1445
(lp1446
I12
aI24
aI28
aI32
asS'../newslicerffmpeg/CVE-2016-2328/ffmpeg-2.8.2/swscale_unscaled/point/swscale_unscaled_1_1079:src_#bayer_to_yv12_wrapper#.slicer.c'
p1447
(lp1448
sS'../newslicerffmpeg/CVE-2014-8543/ffmpeg-2.4.1/mmvideo/point/mmvideo_1_90:s,93:s,96:s,101:s,117:s_#mm_decode_intra#.slicer.c'
p1449
(lp1450
sS'../newslicerffmpeg/CVE-2014-9676/ffmpeg-2.1.4/segment/bds/segment_3_701:pkt,701:offset,710:pkt,701:offset_#seg_write_packet#.slicer.c'
p1451
(lp1452
sS'../newslicerffmpeg/CVE-2013-0868/ffmpeg-1.1.1/huffyuvdec/arr/huffyuvdec_4_209:classic_shift_luma_#read_old_huffman_tables#.slicer.c'
p1453
(lp1454
sS'../newslicerffmpeg/CVE-2013-0874/ffmpeg-1.1.2/tiff/api/tiff_2_246:ap,246:sep,246:sp,246:i,246:sep,247:ap,249:sep,246:sp,246:i,249:sep_#shorts2str#.slicer.c'
p1455
(lp1456
I22
aI27
asS'../newslicerffmpeg/CVE-2013-7019/ffmpeg-2.0.2/jpeg2000dec/point/jpeg2000dec_1_366:c,367:c,373:c,374:c,376:c,376:c,378:c,379:c,381:c,381:c,382:c,382:c,387:c,387:c,392:c,393:c,396:c,398:c,399:c,401:c,403:c,405:c,406:c,409:c,409:c,410:c,410:c_#get_cox#.slicer.c'
p1457
(lp1458
I23
aI24
aI25
asS'../newslicerffmpeg/CVE-2010-3429/ffmpeg-0.6/flicvideo/bds/flicvideo_27_511:pixel_countdown,511:pixel_skip,630:pixel_countdown,511:pixel_skip_#flic_decode_frame_15_16BPP#.slicer.c'
p1459
(lp1460
I56
aI60
aI97
aI103
asS'../newslicerffmpeg/CVE-2013-0856/ffmpeg-1.0/alac/bds/alac_6_253:lpc_coefs,253:j,253:sign,253:lpc_coefs,255:j,254:sign_#lpc_prediction#.slicer.c'
p1461
(lp1462
I88
asS'../newslicerffmpeg/CVE-2013-7010/ffmpeg-2.0.1/dsputil/point/dsputil_2_1936:dst,1937:dst,1940:dst_#add_bytes_c#.slicer.c'
p1463
(lp1464
I3
asS'../newslicerffmpeg/CVE-2012-2775/ffmpeg-0.10.5/alsdec/arr/alsdec_8_788:tail_code_#read_var_block_data#.slicer.c'
p1465
(lp1466
I150
aI152
asS'../newslicerffmpeg/CVE-2012-2775/ffmpeg-0.10.5/alsdec/bds/alsdec_12_817:res,817:gb,817:cur_k,821:res,833:gb,817:cur_k_#read_var_block_data#.slicer.c'
p1467
(lp1468
I150
aI152
asS'../newslicerffmpeg/CVE-2012-0850/ffmpeg-0.9/aacsbr/bds/aacsbr_2_1197:v,1197:v0,1197:v_off,1228:v,1197:v0,1197:v_off_#sbr_qmf_synthesis#.slicer.c'
p1469
(lp1470
I5
asS'../newslicerffmpeg/CVE-2013-3674/ffmpeg-1.2/cdgraphics/bds/cdgraphics_2_302:buf,303:buf_#cdg_decode_frame#.slicer.c'
p1471
(lp1472
sS'../newslicerffmpeg/CVE-2012-6616/ffmpeg-1.0.1/movtextdec/point/movtextdec_1_62:data_#mov_text_decode_frame#.slicer.c'
p1473
(lp1474
sS'../newslicerffmpeg/CVE-2016-2330/ffmpeg-2.8.2/gif/point/gif_2_97:ref,102:ref,112:ref,124:ref,191:ref_#gif_image_write_image#.slicer.c'
p1475
(lp1476
sS'../newslicerffmpeg/CVE-2013-0868/ffmpeg-1.1.1/huffyuvdec/api/huffyuvdec_6_226:s,226:s,235:s,235:s_#read_old_huffman_tables#.slicer.c'
p1477
(lp1478
sS'../newslicerffmpeg/CVE-2013-0868/ffmpeg-1.1.1/huffyuvdec/arr/huffyuvdec_5_214:classic_shift_chroma_#read_old_huffman_tables#.slicer.c'
p1479
(lp1480
sS'../newslicerffmpeg/CVE-2014-8546/ffmpeg-2.4.1/cinepak/api/cinepak_8_200:ip2,200:p,258:ip2,238:p_#cinepak_decode_vectors#.slicer.c'
p1481
(lp1482
sS'../newslicerffmpeg/CVE-2014-2097/ffmpeg-2.1.3/takdec/point/takdec_3_683:gb,686:gb,690:gb,765:gb,774:gb,776:gb,779:gb,784:gb,787:gb,792:gb,800:gb,802:gb,803:gb,857:gb,858:gb,866:gb_#tak_decode_frame#.slicer.c'
p1483
(lp1484
I29
aI30
aI31
asS'../newslicerffmpeg/CVE-2013-0853/ffmpeg-1.0/wavpack/bds/wavpack_3_1220:buf,1240:buf_#wavpack_decode_frame#.slicer.c'
p1485
(lp1486
I24
asS'../newslicerffmpeg/CVE-2012-2797/ffmpeg-0.10.14/mpegaudiodec/point/mpegaudiodec_3_1910:s,1911:s,1922:s,1922:s,1927:s,1930:s,1937:s,1945:s,1959:s,1962:s,1965:s,1970:s,1971:s,1980:s,1982:s,1984:s_#decode_frame_mp3on4#.slicer.c'
p1487
(lp1488
I7
asS'../newslicerffmpeg/CVE-2013-0844/ffmpeg-1.0.3/adpcm/bds/adpcm_34_988:i,1228:i_#adpcm_decode_frame#.slicer.c'
p1489
(lp1490
sS'../newslicerffmpeg/CVE-2014-8546/ffmpeg-2.4.1/cinepak/bds/cinepak_3_164:mask,209:mask_#cinepak_decode_vectors#.slicer.c'
p1491
(lp1492
sS'../newslicerffmpeg/CVE-2013-0844/ffmpeg-1.0.3/adpcm/bds/adpcm_13_740:n,740:nb_samples,740:st,1239:n,1228:nb_samples,1254:st_#adpcm_decode_frame#.slicer.c'
p1493
(lp1494
sS'../newslicerffmpeg/CVE-2013-7024/ffmpeg-2.0.2/jpeg2000dec/point/jpeg2000dec_6_1208:band,1208:band,1209:band,1209:band,1215:band,1230:band,1232:band_#jpeg2000_decode_tile#.slicer.c'
p1495
(lp1496
sS'../newslicerffmpeg/CVE-2013-3670/ffmpeg-1.2/vmdav/bds/vmdav_1_169:ps_end,169:src,169:src_len,191:ps_end,202:src,169:src_len_#rle_unpack#.slicer.c'
p1497
(lp1498
I136
aI137
asS'../newslicerffmpeg/CVE-2013-3670/ffmpeg-1.2/vmdav/bds/vmdav_5_189:pd,189:l,195:pd,199:l_#rle_unpack#.slicer.c'
p1499
(lp1500
I136
aI137
asS'../newslicerffmpeg/CVE-2016-2327/ffmpeg-2.8.2/pngenc/point/pngenc_9_776:bytestream_start_#apng_encode_frame#.slicer.c'
p1501
(lp1502
I282
aI283
asS'../newslicerffmpeg/CVE-2012-0850/ffmpeg-0.9/aacsbr/point/aacsbr_6_1220:out,1220:out,1221:out,1221:out,1222:out,1222:out,1223:out,1223:out,1224:out,1224:out,1225:out,1225:out,1226:out,1226:out,1227:out,1227:out,1228:out,1228:out,1229:out_#sbr_qmf_synthesis#.slicer.c'
p1503
(lp1504
I5
asS'../newslicerffmpeg/CVE-2016-2330/ffmpeg-2.8.2/gif/api/gif_1_97:ref,97:y_start,97:ref_linesize,97:buf,97:y_start,97:linesize,97:width,191:ref,179:y_start,191:ref_linesize,179:buf,179:y_start,196:linesize,159:width_#gif_image_write_image#.slicer.c'
p1505
(lp1506
sS'../newslicerffmpeg/CVE-2010-3429/ffmpeg-0.6/flicvideo/bds/flicvideo_26_510:pixel_ptr,510:pixel_skip,629:pixel_ptr,511:pixel_skip_#flic_decode_frame_15_16BPP#.slicer.c'
p1507
(lp1508
I56
aI60
aI97
aI103
asS'../newslicerffmpeg/CVE-2016-2213/ffmpeg-2.8.2/jpeg2000dec/bds/jpeg2000dec_9_1734:dst,1734:pixelsize,1784:dst,1784:pixelsize_#jpeg2000_decode_tile#.slicer.c'
p1509
(lp1510
I181
aI182
aI183
aI184
aI185
asS'../newslicerffmpeg/CVE-2013-0844/ffmpeg-1.0.3/adpcm/bds/adpcm_44_1106:s2,1106:s,1106:i,1110:s2,1106:s,1228:i_#adpcm_decode_frame#.slicer.c'
p1511
(lp1512
sS'../newslicerffmpeg/CVE-2013-0844/ffmpeg-1.0.3/adpcm/arr/adpcm_5_1020:offsets_#adpcm_decode_frame#.slicer.c'
p1513
(lp1514
sS'../newslicerffmpeg/CVE-2013-0874/ffmpeg-1.1.2/tiff/bds/tiff_1_229:ap,229:l,229:ap,229:l_#doubles2str#.slicer.c'
p1515
(lp1516
I41
aI43
aI235
asS'../newslicerffmpeg/CVE-2012-2797/ffmpeg-0.10.14/mpegaudiodec/bds/mpegaudiodec_9_1972:bp,1972:avctx,1972:bp,1982:avctx_#decode_frame_mp3on4#.slicer.c'
p1517
(lp1518
I7
asS'../newslicerffmpeg/CVE-2013-0853/ffmpeg-1.0/wavpack/bds/wavpack_6_1240:buf,1240:frame_size,1240:buf,1240:frame_size_#wavpack_decode_frame#.slicer.c'
p1519
(lp1520
I24
asS'../newslicerffmpeg/CVE-2013-3670/ffmpeg-1.2/vmdav/api/vmdav_1_187:pd,187:ps,187:l,195:pd,202:ps,199:l_#rle_unpack#.slicer.c'
p1521
(lp1522
I137
aI138
asS'../newslicerffmpeg/CVE-2013-0868/ffmpeg-1.1.1/huffyuvdec/bds/huffyuvdec_3_146:i,146:g,172:i,168:g_#generate_joint_tables#.slicer.c'
p1523
(lp1524
I12
aI24
aI28
aI32
asS'../newslicerffmpeg/CVE-2012-2779/ffmpeg-0.10.5/indeo5/api/indeo5_1_359:ctx,359:ctx,359:IVI_MB_HUFF,359:ctx,359:avctx,365:ctx,365:ctx,359:IVI_MB_HUFF,365:ctx,359:avctx_#decode_pic_hdr#.slicer.c'
p1525
(lp1526
I175
asS'../newslicerffmpeg/CVE-2010-3429/ffmpeg-0.6/flicvideo/bds/flicvideo_33_613:stream_ptr,668:stream_ptr_#flic_decode_frame_15_16BPP#.slicer.c'
p1527
(lp1528
I56
aI60
aI97
aI103
asS'../newslicerffmpeg/CVE-2012-2790/ffmpeg-0.10.5/alsdec/arr/alsdec_8_788:tail_code_#read_var_block_data#.slicer.c'
p1529
(lp1530
I150
aI152
asS'../newslicerffmpeg/CVE-2013-0853/ffmpeg-1.0/wavpack/bds/wavpack_2_1220:frame_size,1220:buf,1240:frame_size,1240:buf_#wavpack_decode_frame#.slicer.c'
p1531
(lp1532
I24
asS'../newslicerffmpeg/CVE-2013-7024/ffmpeg-2.0.2/jpeg2000dec/bds/jpeg2000dec_10_1293:dst,1293:pixelsize,1340:dst,1340:pixelsize_#jpeg2000_decode_tile#.slicer.c'
p1533
(lp1534
I217
aI220
aI248
aI251
asS'../newslicerffmpeg/CVE-2012-2790/ffmpeg-0.10.5/alsdec/arr/alsdec_2_646:sx,775:sx,788:sx,796:sx,796:sx_#read_var_block_data#.slicer.c'
p1535
(lp1536
I150
aI152
asS'../newslicerffmpeg/CVE-2016-2327/ffmpeg-2.8.2/pngenc/arr/pngenc_1_893:buf,894:buf,895:buf,896:buf,897:buf,898:buf,899:buf,900:buf,901:buf,902:buf_#encode_apng#.slicer.c'
p1537
(lp1538
sS'../newslicerffmpeg/CVE-2014-5271/ffmpeg-2.3.2/proresenc_kostya/bds/proresenc_kostya_22_1040:orig_buf,1042:orig_buf_#encode_frame#.slicer.c'
p1539
(lp1540
I9
aI10
aI74
asS'../newslicerffmpeg/CVE-2014-8541/ffmpeg-2.4.1/mjpegdec/arr/mjpegdec_1_303:h_count,303:h_count,308:h_count,311:h_count,312:h_count,320:h_count,340:h_count,340:h_count,345:h_count,345:h_count_#ff_mjpeg_decode_sof#.slicer.c'
p1541
(lp1542
I65
aI75
aI78
aI90
asS'../newslicerffmpeg/CVE-2012-2775/ffmpeg-0.10.5/alsdec/bds/alsdec_8_802:res,802:max_msb,802:cur_k,821:res,804:max_msb,817:cur_k_#read_var_block_data#.slicer.c'
p1543
(lp1544
I150
aI152
asS'../newslicerffmpeg/CVE-2012-2783/ffmpeg-0.10.16/vp56/point/vp56_1_493:avctx_#ff_vp56_decode_frame#.slicer.c'
p1545
(lp1546
sS'../newslicerffmpeg/CVE-2013-0844/ffmpeg-1.0.3/adpcm/bds/adpcm_1_619:step_index,619:predictor,619:step_index,620:predictor_#adpcm_decode_frame#.slicer.c'
p1547
(lp1548
sS'../newslicerffmpeg/CVE-2013-0844/ffmpeg-1.0.3/adpcm/arr/adpcm_4_986:byte,987:byte,990:byte_#adpcm_decode_frame#.slicer.c'
p1549
(lp1550
sS'../newslicerffmpeg/CVE-2013-0845/ffmpeg-1.0.3/alsdec/point/alsdec_4_569:sconf_#read_const_block_data#.slicer.c'
p1551
(lp1552
I20
aI21
asS'../newslicerffmpeg/CVE-2013-0853/ffmpeg-1.0/wavpack/point/wavpack_3_1177:s,1178:s,1181:s,1182:s,1185:s,1186:s,1189:s,1193:s,1216:s,1219:s,1239:s_#wavpack_decode_frame#.slicer.c'
p1553
(lp1554
I24
asS'../newslicerffmpeg/CVE-2012-2775/ffmpeg-0.10.5/alsdec/bds/alsdec_3_647:s,647:k,829:s,789:k_#read_var_block_data#.slicer.c'
p1555
(lp1556
I150
aI152
asS'../newslicerffmpeg/CVE-2013-0863/ffmpeg-1.1.1/sanm/api/sanm_4_688:ctx,688:ctx,688:ctx,688:ctx,703:ctx,703:ctx,703:ctx,703:ctx_#old_codec47#.slicer.c'
p1557
(lp1558
I13
aI14
asS'../newslicerffmpeg/CVE-2012-2775/ffmpeg-0.10.5/alsdec/arr/alsdec_7_772:delta,775:delta,788:delta,797:delta_#read_var_block_data#.slicer.c'
p1559
(lp1560
I150
aI152
asS'../newslicerffmpeg/CVE-2014-8547/ffmpeg-2.4.1/gifdec/point/gifdec_6_262:px,262:px,262:px,264:px_#gif_read_image#.slicer.c'
p1561
(lp1562
I96
aI97
aI98
aI99
aI102
aI103
aI104
aI105
asS'../newslicerffmpeg/CVE-2014-8547/ffmpeg-2.4.1/gifdec/bds/gifdec_3_149:bits_per_pixel,149:flags,154:bits_per_pixel,149:flags_#gif_read_image#.slicer.c'
p1563
(lp1564
sS'../newslicerffmpeg/CVE-2013-0853/ffmpeg-1.0/wavpack/point/wavpack_2_1173:avpkt,1246:avpkt_#wavpack_decode_frame#.slicer.c'
p1565
(lp1566
I24
asS'../newslicerffmpeg/CVE-2011-3934/ffmpeg-0.9.4/vp3/bds/vp3_1_1818:y_fragment_count,1818:s,1818:s,1820:y_fragment_count,1829:s,1829:s_#vp3_update_thread_context#.slicer.c'
p1567
(lp1568
sS'../newslicerffmpeg/CVE-2013-0844/ffmpeg-1.0.3/adpcm/bds/adpcm_51_1140:lo,1140:v,1140:lo,1141:v_#adpcm_decode_frame#.slicer.c'
p1569
(lp1570
I223
asS'../newslicerffmpeg/CVE-2011-3973/ffmpeg-0.8.2/cavsdec/point/cavsdec_18_659:buf,660:buf,664:buf_#cavs_decode_frame#.slicer.c'
p1571
(lp1572
I14
asS'../newslicerffmpeg/CVE-2013-3670/ffmpeg-1.2/vmdav/point/vmdav_1_166:dest,170:dest_#rle_unpack#.slicer.c'
p1573
(lp1574
sS'../newslicerffmpeg/CVE-2013-7024/ffmpeg-2.0.2/jpeg2000dec/point/jpeg2000dec_9_1275:dst,1282:dst,1284:dst,1291:dst,1293:dst,1321:dst,1328:dst,1330:dst,1338:dst,1340:dst_#jpeg2000_decode_tile#.slicer.c'
p1575
(lp1576
I217
aI220
aI248
aI251
asS'../newslicerffmpeg/CVE-2012-2794/ffmpeg-0.10.5/indeo5/bds/indeo5_1_459:offs,459:tile,459:band,459:tile,559:offs,472:tile,556:band,472:tile_#decode_mb_info#.slicer.c'
p1577
(lp1578
sS'../newslicerffmpeg/CVE-2013-0844/ffmpeg-1.0.3/adpcm/bds/adpcm_30_950:next_left_sample,950:byte,950:shift_left,961:next_left_sample,1243:byte,950:shift_left_#adpcm_decode_frame#.slicer.c'
p1579
(lp1580
sS'../newslicerffmpeg/CVE-2013-0868/ffmpeg-1.1.1/huffyuvdec/bds/huffyuvdec_1_118:i,118:y,172:i,129:y_#generate_joint_tables#.slicer.c'
p1581
(lp1582
I12
aI22
aI25
aI39
aI43
aI47
asS'../newslicerffmpeg/CVE-2013-0851/ffmpeg-1.0/eamad/bds/eamad_1_248:buf,283:buf_#decode_frame#.slicer.c'
p1583
(lp1584
I7
asS'../newslicerffmpeg/CVE-2013-7017/ffmpeg-2.0.1/jpeg2000/point/jpeg2000_12_512:band,518:band_#ff_jpeg2000_cleanup#.slicer.c'
p1585
(lp1586
I9
asS'../newslicerffmpeg/CVE-2013-7011/ffmpeg-2.0.1/ffv1dec/arr/ffv1dec_1_562:state,562:state,565:state,571:state,574:state,577:state,580:state,582:state,583:state,584:state,585:state,677:state,703:state,704:state,705:state,706:state,724:state_#read_header#.slicer.c'
p1587
(lp1588
sS'../newslicerffmpeg/CVE-2012-0850/ffmpeg-0.9/aacsbr/point/aacsbr_5_1220:dsp,1221:dsp,1222:dsp,1223:dsp,1224:dsp,1225:dsp,1226:dsp,1227:dsp,1228:dsp_#sbr_qmf_synthesis#.slicer.c'
p1589
(lp1590
I5
asS'../newslicerffmpeg/CVE-2013-7024/ffmpeg-2.0.2/jpeg2000dec/point/jpeg2000dec_5_1201:rlevel,1203:rlevel,1212:rlevel,1212:rlevel_#jpeg2000_decode_tile#.slicer.c'
p1591
(lp1592
sS'../newslicerffmpeg/CVE-2012-2783/ffmpeg-0.10.16/vp56/point/vp56_2_495:avpkt_#ff_vp56_decode_frame#.slicer.c'
p1593
(lp1594
sS'../newslicerffmpeg/CVE-2013-0844/ffmpeg-1.0.3/adpcm/bds/adpcm_39_1060:next_sample,1060:current_sample,1060:coeff1,1060:previous_sample,1060:coeff2,1064:next_sample,1065:current_sample,1059:coeff1,1063:previous_sample,1060:coeff2_#adpcm_decode_frame#.slicer.c'
p1595
(lp1596
sS'../newslicerffmpeg/CVE-2013-0864/ffmpeg-1.1.1/gifdec/bds/gifdec_2_124:dst_py,124:linesize,126:dst_py,124:linesize_#gif_copy_img_rect#.slicer.c'
p1597
(lp1598
I51
asS'../newslicerffmpeg/CVE-2013-4264/ffmpeg-2.0/g2meet/bds/g2meet_6_378:src,378:npal,414:src,434:npal_#kempf_decode_tile#.slicer.c'
p1599
(lp1600
I187
asS'../newslicerffmpeg/CVE-2015-1872/ffmpeg-2.5.3/mjpegdec/bds/mjpegdec_8_448:s,617:s_#ff_mjpeg_decode_sof#.slicer.c'
p1601
(lp1602
I216
aI218
asS'../newslicerffmpeg/CVE-2013-0844/ffmpeg-1.0.3/adpcm/bds/adpcm_56_1185:n,1185:nb_samples,1185:st,1239:n,1228:nb_samples,1254:st_#adpcm_decode_frame#.slicer.c'
p1603
(lp1604
sS'../newslicerffmpeg/CVE-2014-8547/ffmpeg-2.4.1/gifdec/point/gifdec_2_160:pal,167:pal,264:pal_#gif_read_image#.slicer.c'
p1605
(lp1606
I96
aI97
aI98
aI99
aI102
aI103
aI104
aI105
asS'../newslicerffmpeg/CVE-2012-2797/ffmpeg-0.10.14/mpegaudiodec/bds/mpegaudiodec_4_1956:buf,1956:fsize,1956:buf,1957:fsize_#decode_frame_mp3on4#.slicer.c'
p1607
(lp1608
I7
asS'../newslicerffmpeg/CVE-2013-0844/ffmpeg-1.0.3/adpcm/bds/adpcm_18_845:v2,845:v,845:v2,1141:v_#adpcm_decode_frame#.slicer.c'
p1609
(lp1610
I223
asS'../newslicerffmpeg/CVE-2015-1872/ffmpeg-2.5.3/mjpegdec/api/mjpegdec_4_354:s,354:v_count,354:v_count,617:s,354:v_count,354:v_count_#ff_mjpeg_decode_sof#.slicer.c'
p1611
(lp1612
I217
aI219
asS'../newslicerffmpeg/CVE-2013-0844/ffmpeg-1.0.3/adpcm/arr/adpcm_6_1217:table,1232:table,1233:table_#adpcm_decode_frame#.slicer.c'
p1613
(lp1614
sS'../newslicerffmpeg/CVE-2013-0844/ffmpeg-1.0.3/adpcm/bds/adpcm_11_698:samples,698:avctx,1254:samples,1199:avctx_#adpcm_decode_frame#.slicer.c'
p1615
(lp1616
I223
asS'../newslicerffmpeg/CVE-2015-8363/ffmpeg-2.8.2/jpeg2000dec/point/jpeg2000dec_8_1877:properties,1880:properties,1883:properties,1886:properties,1897:properties_#jpeg2000_read_main_headers#.slicer.c'
p1617
(lp1618
sS'../newslicerffmpeg/CVE-2013-0863/ffmpeg-1.1.1/sanm/point/sanm_2_645:prev1,679:prev1_#old_codec47#.slicer.c'
p1619
(lp1620
I13
aI14
asS'../newslicerffmpeg/CVE-2013-7009/ffmpeg-2.0.1/rpza/bds/rpza_13_180:color4,180:ta,180:tb,196:color4,186:ta,186:tb_#rpza_decode_stream#.slicer.c'
p1621
(lp1622
I23
aI52
aI83
aI94
asS'../newslicerffmpeg/CVE-2013-0844/ffmpeg-1.0.3/adpcm/bds/adpcm_50_1138:lo,1138:v,1140:lo,1141:v_#adpcm_decode_frame#.slicer.c'
p1623
(lp1624
I223
asS'../newslicerffmpeg/CVE-2013-0844/ffmpeg-1.0.3/adpcm/bds/adpcm_54_1167:n,1167:nb_samples,1167:st,1239:n,1228:nb_samples,1254:st_#adpcm_decode_frame#.slicer.c'
p1625
(lp1626
sS'../newslicerffmpeg/CVE-2011-3973/ffmpeg-0.8.2/cavsdec/point/cavsdec_12_640:avpkt_#cavs_decode_frame#.slicer.c'
p1627
(lp1628
sS'../newslicerffmpeg/CVE-2013-7009/ffmpeg-2.0.1/rpza/bds/rpza_20_220:block_ptr,220:row_inc,220:block_ptr,220:row_inc_#rpza_decode_stream#.slicer.c'
p1629
(lp1630
I23
aI52
aI83
aI94
asS'../newslicerffmpeg/CVE-2014-2099/ffmpeg-2.1.3/msrle/point/msrle_3_94:s,95:s,133:s_#msrle_decode_frame#.slicer.c'
p1631
(lp1632
sS'../newslicerffmpeg/CVE-2012-2775/ffmpeg-0.10.5/alsdec/arr/alsdec_3_679:parcor_scaled_values,683:parcor_scaled_values,709:parcor_scaled_values,712:parcor_scaled_values_#read_var_block_data#.slicer.c'
p1633
(lp1634
I150
aI152
asS'../newslicerffmpeg/CVE-2014-5271/ffmpeg-2.3.2/proresenc_kostya/bds/proresenc_kostya_3_541:xp,541:x,546:xp,546:x_#encode_slice#.slicer.c'
p1635
(lp1636
I25
aI26
aI81
asS'../newslicerffmpeg/CVE-2011-3362/ffmpeg-0.8.1/cavsdec/point/cavsdec_5_146:dst_#decode_residual_block#.slicer.c'
p1637
(lp1638
sS'../newslicerffmpeg/CVE-2013-3674/ffmpeg-1.2/cdgraphics/point/cdgraphics_4_319:cc,322:cc,331:cc,351:cc_#cdg_decode_frame#.slicer.c'
p1639
(lp1640
sS'../newslicerffmpeg/CVE-2010-3429/ffmpeg-0.6/flicvideo/bds/flicvideo_8_247:stream_ptr,396:stream_ptr_#flic_decode_frame_8BPP#.slicer.c'
p1641
(lp1642
I64
aI77
asS'../newslicerffmpeg/CVE-2010-3429/ffmpeg-0.6/flicvideo/point/flicvideo_2_197:s,227:s,228:s,229:s,260:s,301:s,342:s,347:s,380:s,380:s,416:s,418:s_#flic_decode_frame_8BPP#.slicer.c'
p1643
(lp1644
I64
aI77
asS'../newslicerffmpeg/CVE-2014-2097/ffmpeg-2.1.3/takdec/bds/takdec_4_853:decoded,853:i,853:s,853:chan,853:decoded,853:i,853:s,853:chan_#tak_decode_frame#.slicer.c'
p1645
(lp1646
I29
aI30
aI31
asS'../newslicerffmpeg/CVE-2013-0853/ffmpeg-1.0/wavpack/bds/wavpack_7_1240:buf_size,1240:frame_size,1240:buf_size,1240:frame_size_#wavpack_decode_frame#.slicer.c'
p1647
(lp1648
I24
asS'../newslicerffmpeg/CVE-2013-7017/ffmpeg-2.0.1/jpeg2000/point/jpeg2000_6_320:avctx_#ff_jpeg2000_init_component#.slicer.c'
p1649
(lp1650
I53
aI96
asS'../newslicerffmpeg/CVE-2012-2794/ffmpeg-0.10.5/indeo5/point/indeo5_3_457:tile,458:tile,459:tile,459:tile,469:tile,469:tile,469:tile,472:tile,472:tile,472:tile_#decode_mb_info#.slicer.c'
p1651
(lp1652
sS'../newslicerffmpeg/CVE-2013-0863/ffmpeg-1.1.1/sanm/point/sanm_4_655:dst,656:dst,664:dst,664:dst,665:dst,665:dst,667:dst,678:dst_#old_codec47#.slicer.c'
p1653
(lp1654
I13
aI14
asS'../newslicerffmpeg/CVE-2014-9316/ffmpeg-2.4.3/mjpegdec/bds/mjpegdec_5_1616:len,1734:len_#mjpeg_decode_app#.slicer.c'
p1655
(lp1656
I111
aI112
aI113
aI114
asS'../newslicerffmpeg/CVE-2013-0853/ffmpeg-1.0/wavpack/point/wavpack_4_1182:buf,1182:buf,1183:buf,1186:buf,1187:buf,1189:buf,1190:buf,1220:buf,1220:buf,1224:buf,1240:buf_#wavpack_decode_frame#.slicer.c'
p1657
(lp1658
I24
asS'../newslicerffmpeg/CVE-2012-2776/ffmpeg-0.10.5/indeo3/bds/indeo3_11_525:line,525:num_lines,525:line,527:num_lines_#decode_cell_data#.slicer.c'
p1659
(lp1660
I59
aI60
asS'../newslicerffmpeg/CVE-2013-0874/ffmpeg-1.1.2/tiff/bds/tiff_2_247:ap,247:l,247:ap,247:l_#shorts2str#.slicer.c'
p1661
(lp1662
I22
aI27
asS'../newslicerffmpeg/CVE-2010-3429/ffmpeg-0.6/flicvideo/bds/flicvideo_13_298:stream_ptr,396:stream_ptr_#flic_decode_frame_8BPP#.slicer.c'
p1663
(lp1664
I64
aI77
asS'../newslicerffmpeg/CVE-2012-2790/ffmpeg-0.10.5/alsdec/bds/alsdec_4_738:bd,738:opt_order,825:bd,751:opt_order_#read_var_block_data#.slicer.c'
p1665
(lp1666
I150
aI152
asS'../newslicerffmpeg/CVE-2012-0850/ffmpeg-0.9/aacsbr/point/aacsbr_7_1220:sbr_qmf_window,1221:sbr_qmf_window,1222:sbr_qmf_window,1223:sbr_qmf_window,1224:sbr_qmf_window,1225:sbr_qmf_window,1226:sbr_qmf_window,1227:sbr_qmf_window,1228:sbr_qmf_window_#sbr_qmf_synthesis#.slicer.c'
p1667
(lp1668
I5
asS'../newslicerffmpeg/CVE-2015-8363/ffmpeg-2.8.2/jpeg2000dec/api/jpeg2000dec_2_1811:s,1811:s,1814:s,1814:s_#jpeg2000_dec_cleanup#.slicer.c'
p1669
(lp1670
sS'../newslicerffmpeg/CVE-2014-8545/ffmpeg-2.4.1/pngdec/bds/pngdec_8_835:i,835:s,867:i,885:s_#decode_frame#.slicer.c'
p1671
(lp1672
I90
asS'../newslicerffmpeg/CVE-2012-6615/ffmpeg-1.0.1/ass_split/arr/ass_split_3_389:c,390:c,390:c_#ff_ass_split_override_codes#.slicer.c'
p1673
(lp1674
I5
asS'../newslicerffmpeg/CVE-2013-7010/ffmpeg-2.0.1/dsputil/bds/dsputil_2_1940:dst,1940:i,1940:src,1940:i,1940:dst,1940:i,1940:src,1940:i_#add_bytes_c#.slicer.c'
p1675
(lp1676
I3
asS'../newslicerffmpeg/CVE-2013-0856/ffmpeg-1.0/alac/bds/alac_4_251:val,251:d,251:pred,251:j,255:val,251:d,251:pred,255:j_#lpc_prediction#.slicer.c'
p1677
(lp1678
I88
asS'../newslicerffmpeg/CVE-2013-0844/ffmpeg-1.0.3/adpcm/bds/adpcm_52_1141:hi,1141:v,1141:hi,1141:v_#adpcm_decode_frame#.slicer.c'
p1679
(lp1680
I223
asS'../newslicerffmpeg/CVE-2012-6616/ffmpeg-1.0.1/movtextdec/point/movtextdec_2_86:end_#mov_text_decode_frame#.slicer.c'
p1681
(lp1682
I7
asS'../newslicerffmpeg/CVE-2012-2775/ffmpeg-0.10.5/alsdec/bds/alsdec_5_768:current_res,768:bd,768:start,829:current_res,825:bd,828:start_#read_var_block_data#.slicer.c'
p1683
(lp1684
I150
aI152
asS'../newslicerffmpeg/CVE-2014-2099/ffmpeg-2.1.3/msrle/point/msrle_1_89:avpkt,112:avpkt_#msrle_decode_frame#.slicer.c'
p1685
(lp1686
sS'../newslicerffmpeg/CVE-2016-2330/ffmpeg-2.8.2/gif/point/gif_8_205:end_#gif_image_write_image#.slicer.c'
p1687
(lp1688
sS'../newslicerffmpeg/CVE-2013-7011/ffmpeg-2.0.1/ffv1dec/point/ffv1dec_3_681:p,684:p,685:p,687:p,730:p,731:p,732:p,735:p,735:p,740:p,741:p,742:p,744:p_#read_header#.slicer.c'
p1689
(lp1690
I58
aI59
aI60
aI61
asS'../newslicerffmpeg/CVE-2011-3362/ffmpeg-0.8.1/cavsdec/arr/cavsdec_3_143:ff_cavs_dequant_mul_#decode_residual_block#.slicer.c'
p1691
(lp1692
sS'../newslicerffmpeg/CVE-2014-8545/ffmpeg-2.4.1/pngdec/point/pngdec_7_881:got_frame_#decode_frame#.slicer.c'
p1693
(lp1694
I89
asS'../newslicerffmpeg/CVE-2014-2097/ffmpeg-2.1.3/takdec/point/takdec_4_683:pkt,683:pkt,691:pkt,865:pkt,901:pkt_#tak_decode_frame#.slicer.c'
p1695
(lp1696
I29
aI30
aI31
asS'../newslicerffmpeg/CVE-2010-3429/ffmpeg-0.6/flicvideo/bds/flicvideo_35_628:stream_ptr,668:stream_ptr_#flic_decode_frame_15_16BPP#.slicer.c'
p1697
(lp1698
I56
aI60
aI97
aI103
asS'../newslicerffmpeg/CVE-2013-7009/ffmpeg-2.0.1/rpza/bds/rpza_15_186:color4,186:ta,186:tb,196:color4,186:ta,186:tb_#rpza_decode_stream#.slicer.c'
p1699
(lp1700
I23
aI52
aI83
aI94
asS'../newslicerffmpeg/CVE-2012-2779/ffmpeg-0.10.5/indeo5/point/indeo5_5_753:ctx,754:ctx,755:ctx,757:ctx,764:ctx,769:ctx,773:ctx,775:ctx,776:ctx,776:ctx,797:ctx_#decode_frame#.slicer.c'
p1701
(lp1702
I41
asS'../newslicerffmpeg/CVE-2013-0844/ffmpeg-1.0.3/adpcm/bds/adpcm_58_1247:sampledat,1247:prev,1247:ch,1247:factor1,1247:prev,1247:ch,1247:factor2,1247:sampledat,1247:exp,1248:sampledat,1250:prev,1250:ch,1246:factor1,1250:prev,1250:ch,1247:factor2,1248:sampledat,1247:exp_#adpcm_decode_frame#.slicer.c'
p1703
(lp1704
sS'../newslicerffmpeg/CVE-2010-3429/ffmpeg-0.6/flicvideo/bds/flicvideo_28_516:stream_ptr,668:stream_ptr_#flic_decode_frame_15_16BPP#.slicer.c'
p1705
(lp1706
I56
aI60
aI97
aI103
asS'../newslicerffmpeg/CVE-2013-3670/ffmpeg-1.2/vmdav/bds/vmdav_7_199:i,199:l,200:i,199:l_#rle_unpack#.slicer.c'
p1707
(lp1708
I136
aI137
asS'../newslicerffmpeg/CVE-2013-0844/ffmpeg-1.0.3/adpcm/arr/adpcm_7_1222:prev,1246:prev,1247:prev,1249:prev,1249:prev,1250:prev_#adpcm_decode_frame#.slicer.c'
p1709
(lp1710
sS'../newslicerffmpeg/CVE-2016-2327/ffmpeg-2.8.2/pngenc/bds/pngenc_1_729:temp_bytestream_end,729:temp_bytestream,729:original_bytestream_end,729:original_bytestream,790:temp_bytestream_end,808:temp_bytestream,801:original_bytestream_end,792:original_bytestream_#apng_encode_frame#.slicer.c'
p1711
(lp1712
I285
aI286
asS'../newslicerffmpeg/CVE-2012-2775/ffmpeg-0.10.5/alsdec/point/alsdec_7_768:current_res,774:current_res,777:current_res,785:current_res,793:current_res,821:current_res,825:current_res,829:current_res_#read_var_block_data#.slicer.c'
p1713
(lp1714
I150
aI152
asS'../newslicerffmpeg/CVE-2013-7024/ffmpeg-2.0.2/jpeg2000dec/bds/jpeg2000dec_8_1284:dst,1284:pixelsize,1340:dst,1340:pixelsize_#jpeg2000_decode_tile#.slicer.c'
p1715
(lp1716
I217
aI220
aI248
aI251
asS'../newslicerffmpeg/CVE-2011-3929/ffmpeg-0.8.9/dv/point/dv_2_332:buf,344:buf,355:buf_#dv_produce_packet#.slicer.c'
p1717
(lp1718
I59
asS'../newslicerffmpeg/CVE-2012-0850/ffmpeg-0.9/aacsbr/point/aacsbr_2_1192:v0,1192:v0,1197:v0_#sbr_qmf_synthesis#.slicer.c'
p1719
(lp1720
I5
asS'../newslicerffmpeg/CVE-2016-2213/ffmpeg-2.8.2/jpeg2000dec/point/jpeg2000dec_10_1716:line_#jpeg2000_decode_tile#.slicer.c'
p1721
(lp1722
I181
aI182
aI183
aI184
aI185
asS'../newslicerffmpeg/CVE-2013-7024/ffmpeg-2.0.2/jpeg2000dec/point/jpeg2000dec_13_1321:linel_#jpeg2000_decode_tile#.slicer.c'
p1723
(lp1724
I217
aI220
asS'../newslicerffmpeg/CVE-2013-4264/ffmpeg-2.0/g2meet/bds/g2meet_9_398:src,398:zsize,414:src,398:zsize_#kempf_decode_tile#.slicer.c'
p1725
(lp1726
I140
asS'../newslicerffmpeg/CVE-2013-7010/ffmpeg-2.0.1/dsputil/bds/dsputil_3_1959:i,1965:i_#diff_bytes_c#.slicer.c'
p1727
(lp1728
I3
asS'../newslicerffmpeg/CVE-2014-5271/ffmpeg-2.3.2/proresenc_kostya/point/proresenc_kostya_3_526:qmat,528:qmat,530:qmat,532:qmat_#encode_slice#.slicer.c'
p1729
(lp1730
I25
aI26
aI81
asS'../newslicerffmpeg/CVE-2014-9316/ffmpeg-2.4.3/mjpegdec/bds/mjpegdec_9_1680:len,1734:len_#mjpeg_decode_app#.slicer.c'
p1731
(lp1732
I111
aI112
aI113
aI114
asS'../newslicerffmpeg/CVE-2012-2776/ffmpeg-0.10.5/indeo3/bds/indeo3_5_437:is_top_of_cell,437:is_first_row,437:line,437:is_top_of_cell,437:is_first_row,525:line_#decode_cell_data#.slicer.c'
p1733
(lp1734
I59
aI60
asS'../newslicerffmpeg/CVE-2013-4264/ffmpeg-2.0/g2meet/point/g2meet_3_364:dst,366:dst,432:dst_#kempf_decode_tile#.slicer.c'
p1735
(lp1736
I192
asS'../newslicerffmpeg/CVE-2014-8546/ffmpeg-2.4.1/cinepak/api/cinepak_4_197:ip2,197:p,258:ip2,238:p_#cinepak_decode_vectors#.slicer.c'
p1737
(lp1738
sS'../newslicerffmpeg/CVE-2013-0844/ffmpeg-1.0.3/adpcm/bds/adpcm_49_1137:hi,1137:v,1141:hi,1141:v_#adpcm_decode_frame#.slicer.c'
p1739
(lp1740
I223
asS'../newslicerffmpeg/CVE-2013-0856/ffmpeg-1.0/alac/point/alac_3_237:pred,241:pred,251:pred_#lpc_prediction#.slicer.c'
p1741
(lp1742
I88
asS'../newslicerffmpeg/CVE-2014-8541/ffmpeg-2.4.1/mjpegdec/api/mjpegdec_1_303:h_count,303:h_count,345:h_count,345:h_count_#ff_mjpeg_decode_sof#.slicer.c'
p1743
(lp1744
sS'../newslicerffmpeg/CVE-2014-8545/ffmpeg-2.4.1/pngdec/bds/pngdec_3_734:s,885:s_#decode_frame#.slicer.c'
p1745
(lp1746
I90
asS'../newslicerffmpeg/CVE-2013-0844/ffmpeg-1.0.3/adpcm/bds/adpcm_55_1175:n,1175:nb_samples,1239:n,1228:nb_samples_#adpcm_decode_frame#.slicer.c'
p1747
(lp1748
sS'../newslicerffmpeg/CVE-2014-8547/ffmpeg-2.4.1/gifdec/point/gifdec_3_249:ptr,260:ptr,262:ptr,273:ptr,276:ptr,282:ptr,285:ptr,291:ptr,295:ptr_#gif_read_image#.slicer.c'
p1749
(lp1750
I96
aI97
aI98
aI99
aI102
aI103
aI104
aI105
asS'../newslicerffmpeg/CVE-2013-0844/ffmpeg-1.0.3/adpcm/bds/adpcm_40_1066:samplesC,1066:avctx,1066:samplesC,1199:avctx_#adpcm_decode_frame#.slicer.c'
p1751
(lp1752
sS'../newslicerffmpeg/CVE-2016-2213/ffmpeg-2.8.2/jpeg2000dec/bds/jpeg2000dec_14_1784:dst,1784:pixelsize,1784:dst,1784:pixelsize_#jpeg2000_decode_tile#.slicer.c'
p1753
(lp1754
I181
aI182
aI183
aI184
aI185
asS'../newslicerffmpeg/CVE-2016-2328/ffmpeg-2.8.2/swscale_unscaled/bds/swscale_unscaled_5_1114:i,1114:i_#bayer_to_yv12_wrapper#.slicer.c'
p1755
(lp1756
sS'../newslicerffmpeg/CVE-2013-0868/ffmpeg-1.1.1/huffyuvdec/api/huffyuvdec_3_194:s,194:i,199:s,194:i_#read_huffman_tables#.slicer.c'
p1757
(lp1758
I75
aI79
aI83
asS'../newslicerffmpeg/CVE-2014-8546/ffmpeg-2.4.1/cinepak/api/cinepak_19_242:ip2,242:cb2,258:ip2,242:cb2_#cinepak_decode_vectors#.slicer.c'
p1759
(lp1760
sS'../newslicerffmpeg/CVE-2013-7009/ffmpeg-2.0.1/rpza/bds/rpza_9_162:stream_ptr,215:stream_ptr_#rpza_decode_stream#.slicer.c'
p1761
(lp1762
I23
aI52
aI83
aI94
asS'../newslicerffmpeg/CVE-2011-3973/ffmpeg-0.8.2/cavsdec/point/cavsdec_19_660:buf_end,662:buf_end,665:buf_end_#cavs_decode_frame#.slicer.c'
p1763
(lp1764
I14
asS'../newslicerffmpeg/CVE-2010-3429/ffmpeg-0.6/flicvideo/bds/flicvideo_24_496:stream_ptr,668:stream_ptr_#flic_decode_frame_15_16BPP#.slicer.c'
p1765
(lp1766
I56
aI60
aI97
aI103
asS'../newslicerffmpeg/CVE-2013-0844/ffmpeg-1.0.3/adpcm/bds/adpcm_26_905:n,905:nb_samples,905:st,1239:n,1228:nb_samples,1254:st_#adpcm_decode_frame#.slicer.c'
p1767
(lp1768
I223
asS'../newslicerffmpeg/CVE-2013-0863/ffmpeg-1.1.1/sanm/api/sanm_2_646:prev2,646:ctx,646:stride,680:prev2,703:ctx,680:stride_#old_codec47#.slicer.c'
p1769
(lp1770
I13
aI14
asS'../newslicerffmpeg/CVE-2015-8363/ffmpeg-2.8.2/jpeg2000dec/point/jpeg2000dec_9_1883:qntsty,1886:qntsty,1895:qntsty_#jpeg2000_read_main_headers#.slicer.c'
p1771
(lp1772
sS'../newslicerffmpeg/CVE-2013-0863/ffmpeg-1.1.1/sanm/api/sanm_3_685:ctx,685:ctx,685:ctx,685:ctx,703:ctx,703:ctx,703:ctx,703:ctx_#old_codec47#.slicer.c'
p1773
(lp1774
I13
aI14
asS'../newslicerffmpeg/CVE-2012-2775/ffmpeg-0.10.5/alsdec/arr/alsdec_5_732:ltp_gain_values_#read_var_block_data#.slicer.c'
p1775
(lp1776
I150
aI152
asS'../newslicerffmpeg/CVE-2014-8546/ffmpeg-2.4.1/cinepak/bds/cinepak_5_174:mask,209:mask_#cinepak_decode_vectors#.slicer.c'
p1777
(lp1778
sS'../newslicerffmpeg/CVE-2012-6616/ffmpeg-1.0.1/movtextdec/point/movtextdec_5_104:got_sub_ptr_#mov_text_decode_frame#.slicer.c'
p1779
(lp1780
I7
asS'../newslicerffmpeg/CVE-2011-3950/ffmpeg-0.9.4/diracdec/arr/diracdec_1_1754:ver,1754:ver,1754:ver,1755:ver,1755:ver,1755:ver_#dirac_decode_data_unit#.slicer.c'
p1781
(lp1782
I68
asS'../newslicerffmpeg/CVE-2013-0863/ffmpeg-1.1.1/sanm/bds/sanm_8_679:prev1,679:stride,679:prev1,680:stride_#old_codec47#.slicer.c'
p1783
(lp1784
I13
aI14
asS'../newslicerffmpeg/CVE-2012-2797/ffmpeg-0.10.14/mpegaudiodec/point/mpegaudiodec_5_1922:out_samples,1962:out_samples_#decode_frame_mp3on4#.slicer.c'
p1785
(lp1786
I7
asS'../newslicerffmpeg/CVE-2013-0864/ffmpeg-1.1.1/gifdec/bds/gifdec_3_125:src_px,125:src_py,125:l,130:src_px,125:src_py,126:l_#gif_copy_img_rect#.slicer.c'
p1787
(lp1788
I51
asS'../newslicerffmpeg/CVE-2012-6615/ffmpeg-1.0.1/ass_split/point/ass_split_2_372:text,375:text,444:text,445:text,452:text,453:text_#ff_ass_split_override_codes#.slicer.c'
p1789
(lp1790
I5
asS'../newslicerffmpeg/CVE-2012-2797/ffmpeg-0.10.14/mpegaudiodec/point/mpegaudiodec_9_1983:got_frame_ptr_#decode_frame_mp3on4#.slicer.c'
p1791
(lp1792
I7
asS'../newslicerffmpeg/CVE-2013-0844/ffmpeg-1.0.3/adpcm/bds/adpcm_48_1133:n,1133:nb_samples,1133:st,1239:n,1228:nb_samples,1254:st_#adpcm_decode_frame#.slicer.c'
p1793
(lp1794
I223
asS'../newslicerffmpeg/CVE-2013-7024/ffmpeg-2.0.2/jpeg2000dec/bds/jpeg2000dec_11_1315:y,1315:tile,1315:compno,1315:s,1317:y,1320:tile,1333:compno,1333:s_#jpeg2000_decode_tile#.slicer.c'
p1795
(lp1796
I217
aI220
asS'../newslicerffmpeg/CVE-2013-0856/ffmpeg-1.0/alac/bds/alac_7_254:val,254:sign,255:val,254:sign_#lpc_prediction#.slicer.c'
p1797
(lp1798
I88
asS'../newslicerffmpeg/CVE-2013-0868/ffmpeg-1.1.1/huffyuvdec/api/huffyuvdec_5_224:s,224:s,235:s,235:s_#read_old_huffman_tables#.slicer.c'
p1799
(lp1800
sS'../newslicerffmpeg/CVE-2013-0844/ffmpeg-1.0.3/adpcm/bds/adpcm_23_873:n,873:nb_samples,1239:n,1228:nb_samples_#adpcm_decode_frame#.slicer.c'
p1801
(lp1802
I223
asS'../newslicerffmpeg/CVE-2013-3670/ffmpeg-1.2/vmdav/point/vmdav_5_170:pd,174:pd,185:pd,187:pd,189:pd,191:pd,194:pd,195:pd_#rle_unpack#.slicer.c'
p1803
(lp1804
I137
aI138
asS'../newslicerffmpeg/CVE-2011-3973/ffmpeg-0.8.2/cavsdec/bds/cavsdec_3_133:level,133:level,133:mask,133:mask,141:level,141:level,133:mask,133:mask_#decode_residual_block#.slicer.c'
p1805
(lp1806
sS'../newslicerffmpeg/CVE-2011-3973/ffmpeg-0.8.2/cavsdec/point/cavsdec_9_237:left,239:left_#decode_mb_i#.slicer.c'
p1807
(lp1808
sS'../newslicerffmpeg/CVE-2013-0844/ffmpeg-1.0.3/adpcm/bds/adpcm_6_670:samples,670:avctx,1254:samples,1199:avctx_#adpcm_decode_frame#.slicer.c'
p1809
(lp1810
I223
asS'../newslicerffmpeg/CVE-2014-2097/ffmpeg-2.1.3/takdec/api/takdec_4_866:pkt,866:hsize,866:get_bits_count,866:gb,866:hsize,901:pkt,866:hsize,866:gb,866:hsize_#tak_decode_frame#.slicer.c'
p1811
(lp1812
I29
aI30
aI31
asS'../newslicerffmpeg/CVE-2013-7017/ffmpeg-2.0.1/jpeg2000/bds/jpeg2000_6_459:cblk,459:comp,459:reslevelno,459:comp,459:reslevelno,472:cblk,465:comp,465:reslevelno,465:comp,465:reslevelno_#ff_jpeg2000_init_component#.slicer.c'
p1813
(lp1814
I53
aI96
asS'../newslicerffmpeg/CVE-2010-3429/ffmpeg-0.6/flicvideo/bds/flicvideo_5_186:stream_ptr,396:stream_ptr_#flic_decode_frame_8BPP#.slicer.c'
p1815
(lp1816
I64
aI77
asS'../newslicerffmpeg/CVE-2014-8546/ffmpeg-2.4.1/cinepak/bds/cinepak_10_204:p,238:p_#cinepak_decode_vectors#.slicer.c'
p1817
(lp1818
sS'../newslicerffmpeg/CVE-2014-8541/ffmpeg-2.4.1/mjpegdec/api/mjpegdec_5_590:s,590:s,590:s,590:s_#ff_mjpeg_decode_sof#.slicer.c'
p1819
(lp1820
I65
aI75
aI78
aI90
asS'../newslicerffmpeg/CVE-2012-2779/ffmpeg-0.10.5/indeo5/point/indeo5_4_750:avpkt_#decode_frame#.slicer.c'
p1821
(lp1822
sS'../newslicerffmpeg/CVE-2016-2213/ffmpeg-2.8.2/jpeg2000dec/bds/jpeg2000dec_10_1759:y,1759:tile,1759:compno,1759:s,1759:s,1759:compno,1761:y,1764:tile,1765:compno,1764:s,1764:s,1765:compno_#jpeg2000_decode_tile#.slicer.c'
p1823
(lp1824
I181
aI182
aI183
aI184
aI185
asS'../newslicerffmpeg/CVE-2014-9316/ffmpeg-2.4.3/mjpegdec/bds/mjpegdec_4_1592:len,1734:len_#mjpeg_decode_app#.slicer.c'
p1825
(lp1826
I111
aI112
aI113
aI114
asS'../newslicerffmpeg/CVE-2013-7024/ffmpeg-2.0.2/jpeg2000dec/bds/jpeg2000dec_16_1330:dst,1330:pixelsize,1340:dst,1340:pixelsize_#jpeg2000_decode_tile#.slicer.c'
p1827
(lp1828
I217
aI220
asS'../newslicerffmpeg/CVE-2016-2328/ffmpeg-2.8.2/swscale_unscaled/arr/swscale_unscaled_1_1079:src_#bayer_to_yv12_wrapper#.slicer.c'
p1829
(lp1830
sS'../newslicerffmpeg/CVE-2015-1872/ffmpeg-2.5.3/mjpegdec/bds/mjpegdec_4_397:pix_fmt_id,397:pix_fmt_id,540:pix_fmt_id,540:pix_fmt_id_#ff_mjpeg_decode_sof#.slicer.c'
p1831
(lp1832
sS'../newslicerffmpeg/CVE-2014-9676/ffmpeg-2.1.4/segment/bds/segment_1_652:end_pts,652:seg,652:seg,652:end_pts,715:seg,715:seg_#seg_write_packet#.slicer.c'
p1833
(lp1834
sS'../newslicerffmpeg/CVE-2016-2330/ffmpeg-2.8.2/gif/point/gif_3_97:buf,102:buf,112:buf,124:buf,158:buf,179:buf_#gif_image_write_image#.slicer.c'
p1835
(lp1836
sS'../newslicerffmpeg/CVE-2012-6615/ffmpeg-1.0.1/ass_split/arr/ass_split_6_407:tmp,423:tmp,425:tmp_#ff_ass_split_override_codes#.slicer.c'
p1837
(lp1838
sS'../newslicerffmpeg/CVE-2011-3936/ffmpeg-0.8.10/dv/bds/dv_3_117:quant,117:as_pack,119:quant,117:as_pack_#dv_extract_audio#.slicer.c'
p1839
(lp1840
sS'../newslicerffmpeg/CVE-2011-3362/ffmpeg-0.8.1/cavsdec/point/cavsdec_2_124:gb,127:gb_#decode_residual_block#.slicer.c'
p1841
(lp1842
sS'../newslicerffmpeg/CVE-2015-8363/ffmpeg-2.8.2/jpeg2000dec/point/jpeg2000dec_1_1798:s,1798:s,1799:s,1800:s,1801:s,1802:s,1806:s,1809:s,1810:s,1810:s,1811:s,1811:s,1812:s,1812:s,1813:s,1813:s,1814:s,1814:s_#jpeg2000_dec_cleanup#.slicer.c'
p1843
(lp1844
sS'../newslicerffmpeg/CVE-2012-2776/ffmpeg-0.10.5/indeo3/point/indeo3_8_445:data_ptr,449:data_ptr,490:data_ptr_#decode_cell_data#.slicer.c'
p1845
(lp1846
I59
aI60
asS'../newslicerffmpeg/CVE-2012-2775/ffmpeg-0.10.5/alsdec/bds/alsdec_4_738:bd,738:opt_order,825:bd,751:opt_order_#read_var_block_data#.slicer.c'
p1847
(lp1848
I150
aI152
asS'../newslicerffmpeg/CVE-2013-0853/ffmpeg-1.0/wavpack/bds/wavpack_1_1182:buf,1240:buf_#wavpack_decode_frame#.slicer.c'
p1849
(lp1850
I24
asS'../newslicerffmpeg/CVE-2012-2776/ffmpeg-0.10.5/indeo3/bds/indeo3_15_533:ref_block,533:h_zoom,537:ref_block,533:h_zoom_#decode_cell_data#.slicer.c'
p1851
(lp1852
I59
aI60
asS'../newslicerffmpeg/CVE-2012-6616/ffmpeg-1.0.1/movtextdec/point/movtextdec_4_86:avpkt,106:avpkt_#mov_text_decode_frame#.slicer.c'
p1853
(lp1854
I7
asS'../newslicerffmpeg/CVE-2011-3945/ffmpeg-0.8.9/kgv1dec/point/kgv1dec_2_47:avpkt,144:avpkt_#decode_frame#.slicer.c'
p1855
(lp1856
I19
asS'../newslicerffmpeg/CVE-2013-7011/ffmpeg-2.0.1/ffv1dec/api/ffv1dec_1_562:state,562:state,724:state,724:state_#read_header#.slicer.c'
p1857
(lp1858
sS'../newslicerffmpeg/CVE-2015-8363/ffmpeg-2.8.2/jpeg2000dec/bds/jpeg2000dec_1_1850:tile,1850:s,1850:s,1851:tile,1919:s,1919:s_#jpeg2000_read_main_headers#.slicer.c'
p1859
(lp1860
sS'../newslicerffmpeg/CVE-2013-4265/ffmpeg-2.0/mem/point/mem_1_192:ptr_#av_reallocp_array#.slicer.c'
p1861
(lp1862
sS'../newslicerffmpeg/CVE-2014-5271/ffmpeg-2.3.2/proresenc_kostya/bds/proresenc_kostya_10_952:orig_buf,1042:orig_buf_#encode_frame#.slicer.c'
p1863
(lp1864
I9
aI10
asS'../newslicerffmpeg/CVE-2013-7011/ffmpeg-2.0.1/ffv1dec/bds/ffv1dec_1_687:p,687:size,687:trailer,744:p,687:size,687:trailer_#read_header#.slicer.c'
p1865
(lp1866
I58
aI59
aI60
aI61
asS'../newslicerffmpeg/CVE-2013-7017/ffmpeg-2.0.1/jpeg2000/point/jpeg2000_8_440:cblk,445:cblk,448:cblk,452:cblk,456:cblk,458:cblk,462:cblk,464:cblk,468:cblk,469:cblk,470:cblk,471:cblk,472:cblk_#ff_jpeg2000_init_component#.slicer.c'
p1867
(lp1868
I53
aI96
asS'../newslicerffmpeg/CVE-2013-7017/ffmpeg-2.0.1/jpeg2000/point/jpeg2000_9_505:comp,507:comp,523:comp,524:comp,525:comp,526:comp_#ff_jpeg2000_cleanup#.slicer.c'
p1869
(lp1870
I9
asS'../newslicerffmpeg/CVE-2014-8545/ffmpeg-2.4.1/pngdec/point/pngdec_1_526:avctx,564:avctx,587:avctx,624:avctx,625:avctx,630:avctx,670:avctx,686:avctx_#decode_frame#.slicer.c'
p1871
(lp1872
I89
asS'../newslicerffmpeg/CVE-2014-8546/ffmpeg-2.4.1/cinepak/api/cinepak_12_203:ip0,203:p,257:ip0,238:p_#cinepak_decode_vectors#.slicer.c'
p1873
(lp1874
sS'../newslicerffmpeg/CVE-2012-2797/ffmpeg-0.10.14/mpegaudiodec/bds/mpegaudiodec_1_1928:fsize,1928:buf,1957:fsize,1956:buf_#decode_frame_mp3on4#.slicer.c'
p1875
(lp1876
I7
asS'../newslicerffmpeg/CVE-2014-8547/ffmpeg-2.4.1/gifdec/bds/gifdec_7_260:pr,260:ptr,260:pw,262:pr,295:ptr,260:pw_#gif_read_image#.slicer.c'
p1877
(lp1878
I96
aI97
aI98
aI99
aI102
aI103
aI104
aI105
asS'../newslicerffmpeg/CVE-2011-3929/ffmpeg-0.8.9/dv/bds/dv_2_351:c,351:size,364:c,366:size_#dv_produce_packet#.slicer.c'
p1879
(lp1880
I59
asS'../newslicerffmpeg/CVE-2013-7024/ffmpeg-2.0.2/jpeg2000dec/point/jpeg2000dec_7_1218:prec,1218:prec,1220:prec_#jpeg2000_decode_tile#.slicer.c'
p1881
(lp1882
sS'../newslicerffmpeg/CVE-2016-2327/ffmpeg-2.8.2/pngenc/point/pngenc_2_697:s,725:s,726:s,744:s,745:s,773:s,774:s,776:s,785:s,789:s,790:s,792:s,793:s,799:s,801:s_#apng_encode_frame#.slicer.c'
p1883
(lp1884
I285
aI286
asS'../newslicerffmpeg/CVE-2013-0874/ffmpeg-1.1.2/tiff/point/tiff_8_246:sp_#shorts2str#.slicer.c'
p1885
(lp1886
I22
aI26
asS'../newslicerffmpeg/CVE-2013-0878/ffmpeg-1.1.2/targa/point/targa_2_40:line_#advance_line#.slicer.c'
p1887
(lp1888
sS'../newslicerffmpeg/CVE-2013-4264/ffmpeg-2.0/g2meet/bds/g2meet_10_406:nblocks,406:src,406:nblocks,414:src_#kempf_decode_tile#.slicer.c'
p1889
(lp1890
I140
asS'../newslicerffmpeg/CVE-2014-8546/ffmpeg-2.4.1/cinepak/bds/cinepak_1_144:y,153:y_#cinepak_decode_vectors#.slicer.c'
p1891
(lp1892
sS'../newslicerffmpeg/CVE-2013-7009/ffmpeg-2.0.1/rpza/bds/rpza_3_109:total_blocks,109:s,109:s,109:total_blocks,214:s,214:s_#rpza_decode_stream#.slicer.c'
p1893
(lp1894
I23
aI52
aI83
aI94
asS'../newslicerffmpeg/CVE-2013-0844/ffmpeg-1.0.3/adpcm/point/adpcm_10_1106:s2,1106:s2,1108:s2,1109:s2,1110:s2_#adpcm_decode_frame#.slicer.c'
p1895
(lp1896
sS'../newslicerffmpeg/CVE-2011-3929/ffmpeg-0.8.9/dv/bds/dv_1_348:c,348:size,364:c,366:size_#dv_produce_packet#.slicer.c'
p1897
(lp1898
I59
as.