(lp0
S'CVE-2016-2522'
p1
aS'CVE-2016-2532'
p2
aS'CVE-2013-4935'
p3
aS'CVE-2015-0562'
p4
aS'CVE-2014-6429'
p5
aS'CVE-2013-4928'
p6
aS'CVE-2014-6432'
p7
aS'CVE-2013-5717'
p8
aS'CVE-2015-6247'
p9
aS'CVE-2014-6431'
p10
aS'CVE-2014-2282'
p11
aS'CVE-2016-6506'
p12
aS'CVE-2014-6426'
p13
aS'CVE-2013-4931'
p14
aS'CVE-2016-2530'
p15
aS'CVE-2013-6339'
p16
aS'CVE-2014-6427'
p17
aS'CVE-2014-5163'
p18
aS'CVE-2015-3815'
p19
aS'CVE-2016-7179'
p20
aS'CVE-2015-2192'
p21
aS'CVE-2014-5162'
p22
aS'CVE-2015-3810'
p23
aS'CVE-2015-6243'
p24
aS'CVE-2014-4174'
p25
aS'CVE-2013-4930'
p26
aS'CVE-2013-4933'
p27
aS'CVE-2015-3811'
p28
aS'CVE-2013-4923'
p29
aS'CVE-2015-2191'
p30
aS'CVE-2015-3814'
p31
aS'CVE-2013-6336'
p32
aS'CVE-2015-4652'
p33
aS'CVE-2016-4080'
p34
aS'CVE-2015-4651'
p35
aS'CVE-2016-4006'
p36
aS'CVE-2013-5718'
p37
aS'CVE-2013-4932'
p38
aS'CVE-2013-7113'
p39
aS'CVE-2014-8714'
p40
aS'CVE-2014-2299'
p41
aS'CVE-2013-4936'
p42
aS'CVE-2015-3906'
p43
aS'CVE-2016-4079'
p44
aS'CVE-2016-6511'
p45
aS'CVE-2016-2523'
p46
aS'CVE-2015-6246'
p47
aS'CVE-2015-3812'
p48
aS'CVE-2014-2907'
p49
aS'CVE-2015-3813'
p50
aS'CVE-2016-9373'
p51
aS'CVE-2014-6424'
p52
aS'CVE-2015-0564'
p53
aS'CVE-2013-4934'
p54
aS'CVE-2014-6428'
p55
aS'CVE-2013-7114'
p56
aS'CVE-2014-8713'
p57
aS'CVE-2015-6241'
p58
aS'CVE-2013-4927'
p59
aS'CVE-2016-9376'
p60
aS'CVE-2016-7176'
p61
aS'CVE-2013-4922'
p62
aS'CVE-2014-6423'
p63
aS'CVE-2013-4083'
p64
aS'CVE-2015-6242'
p65
a.