(lp0
S'CVE-2013-4483'
p1
aS'CVE-2010-3297'
p2
aS'CVE-2014-0205'
p3
aS'CVE-2013-7266'
p4
aS'CVE-2013-7268'
p5
aS'CVE-2010-4243'
p6
aS'CVE-2013-6380'
p7
aS'CVE-2011-3637'
p8
aS'CVE-2011-3191'
p9
aS'CVE-2014-7975'
p10
aS'CVE-2010-3079'
p11
aS'CVE-2011-3353'
p12
aS'CVE-2009-2767'
p13
aS'CVE-2013-3076'
p14
aS'CVE-2009-3624'
p15
aS'CVE-2010-4649'
p16
aS'CVE-2009-1630'
p17
aS'CVE-2014-9419'
p18
aS'CVE-2013-1792'
p19
aS'CVE-2012-6542'
p20
aS'CVE-2014-9420'
p21
aS'CVE-2014-4652'
p22
aS'CVE-2010-4073'
p23
aS'CVE-2011-4081'
p24
aS'CVE-2013-2548'
p25
aS'CVE-2010-4163'
p26
aS'CVE-2009-1439'
p27
aS'CVE-2009-3621'
p28
aS'CVE-2014-8160'
p29
aS'CVE-2014-9683'
p30
aS'CVE-2011-0006'
p31
aS'CVE-2010-0623'
p32
aS'CVE-2009-1337'
p33
aS'CVE-2011-2182'
p34
aS'CVE-2014-3122'
p35
aS'CVE-2009-2844'
p36
aS'CVE-2014-1739'
p37
aS'CVE-2011-1180'
p38
aS'CVE-2011-2184'
p39
aS'CVE-2013-2596'
p40
aS'CVE-2009-2692'
p41
aS'CVE-2012-6539'
p42
aS'CVE-2010-4248'
p43
aS'CVE-2010-2960'
p44
aS'CVE-2013-2634'
p45
aS'CVE-2014-8133'
p46
aS'CVE-2014-0196'
p47
aS'CVE-2011-2022'
p48
aS'CVE-2011-1044'
p49
aS'CVE-2010-4346'
p50
aS'CVE-2015-4003'
p51
aS'CVE-2013-0914'
p52
aS'CVE-2013-1763'
p53
aS'CVE-2015-3331'
p54
aS'CVE-2011-1012'
p55
aS'CVE-2010-2954'
p56
aS'CVE-2013-0268'
p57
aS'CVE-2009-2407'
p58
aS'CVE-2010-1148'
p59
aS'CVE-2011-2496'
p60
aS'CVE-2009-4895'
p61
aS'CVE-2014-4656'
p62
aS'CVE-2010-0415'
p63
aS'CVE-2014-1446'
p64
aS'CVE-2012-1097'
p65
aS'CVE-2011-1746'
p66
aS'CVE-2009-1298'
p67
aS'CVE-2010-3437'
p68
aS'CVE-2010-4648'
p69
aS'CVE-2012-4530'
p70
aS'CVE-2009-3001'
p71
aS'CVE-2010-0307'
p72
aS'CVE-2014-9584'
p73
aS'CVE-2010-3874'
p74
aS'CVE-2009-2847'
p75
aS'CVE-2013-7271'
p76
aS'CVE-2009-3612'
p77
aS'CVE-2014-9529'
p78
aS'CVE-2010-4082'
p79
aS'CVE-2009-3280'
p80
aS'CVE-2013-4513'
p81
aS'CVE-2012-1090'
p82
aS'CVE-2010-4256'
p83
aS'CVE-2011-2183'
p84
aS'CVE-2013-7027'
p85
aS'CVE-2011-4086'
p86
aS'CVE-2013-2094'
p87
aS'CVE-2009-1527'
p88
aS'CVE-2011-1745'
p89
aS'CVE-2014-1738'
p90
aS'CVE-2013-2547'
p91
aS'CVE-2009-4410'
p92
aS'CVE-2013-6378'
p93
aS'CVE-2011-1598'
p94
aS'CVE-2013-1767'
p95
aS'CVE-2010-4650'
p96
aS'CVE-2009-4141'
p97
aS'CVE-2009-1192'
p98
aS'CVE-2012-2123'
p99
a.