(dp0
S'../../000/062/516/arr/CWE121_Stack_Based_Buffer_Overflow__CWE129_connect_socket_01_1_89:inputBuffer,91:inputBuffer_#CWE121_Stack_Based_Buffer_Overflow__CWE129_connect_socket_01_bad#.final.ll'
p1
(lp2
sS'../../000/062/516/arr/CWE121_Stack_Based_Buffer_Overflow__CWE129_connect_socket_01_5_228:buffer,232:buffer_#goodB2G#.final.ll'
p3
(lp4
sS'../../000/062/516/api/CWE121_Stack_Based_Buffer_Overflow__CWE129_connect_socket_01_2_190:service,190:service,194:service,194:service_#goodB2G#.final.ll'
p5
(lp6
sS'../../000/062/516/api/CWE121_Stack_Based_Buffer_Overflow__CWE129_connect_socket_01_1_73:service,73:service,77:service,77:service_#CWE121_Stack_Based_Buffer_Overflow__CWE129_connect_socket_01_bad#.final.ll'
p7
(lp8
sS'../../000/062/516/arr/CWE121_Stack_Based_Buffer_Overflow__CWE129_connect_socket_01_3_146:buffer,150:buffer_#goodG2B#.final.ll'
p9
(lp10
sS'../../000/062/516/arr/CWE121_Stack_Based_Buffer_Overflow__CWE129_connect_socket_01_2_112:buffer,116:buffer_#CWE121_Stack_Based_Buffer_Overflow__CWE129_connect_socket_01_bad#.final.ll'
p11
(lp12
I54
aI55
aI56
aI57
asS'../../000/062/516/arr/CWE121_Stack_Based_Buffer_Overflow__CWE129_connect_socket_01_4_206:inputBuffer,208:inputBuffer_#goodB2G#.final.ll'
p13
(lp14
s.