(lp0
S'CVE-2014-8176'
p1
aS'CVE-2015-1794'
p2
aS'CVE-2014-0076'
p3
aS'CVE-2016-0703'
p4
aS'CVE-2014-3505'
p5
aS'CVE-2013-0166'
p6
aS'CVE-2012-0884'
p7
aS'CVE-2016-2178'
p8
aS'CVE-2015-0285'
p9
aS'CVE-2015-3197'
p10
aS'CVE-2008-0891'
p11
aS'CVE-2016-7053'
p12
aS'CVE-2015-0207'
p13
aS'CVE-2016-2107'
p14
aS'CVE-2014-5139'
p15
aS'CVE-2016-2182'
p16
aS'CVE-2014-3512'
p17
aS'CVE-2015-3195'
p18
aS'CVE-2016-7055'
p19
aS'CVE-2016-2183'
p20
aS'CVE-2011-4109'
p21
aS'CVE-2014-3506'
p22
aS'CVE-2015-0287'
p23
aS'CVE-2014-3572'
p24
aS'CVE-2014-3507'
p25
aS'CVE-2014-3470'
p26
aS'CVE-2016-2109'
p27
aS'CVE-2011-4576'
p28
aS'CVE-2011-4619'
p29
aS'CVE-2010-0742'
p30
aS'CVE-2016-6308'
p31
aS'CVE-2016-2176'
p32
aS'CVE-2015-0291'
p33
aS'CVE-2013-6449'
p34
aS'CVE-2016-8610'
p35
aS'CVE-2016-7054'
p36
aS'CVE-2014-3568'
p37
aS'CVE-2016-0704'
p38
aS'CVE-2008-1672'
p39
aS'CVE-2010-4180'
p40
aS'CVE-2016-2179'
p41
aS'CVE-2016-6307'
p42
aS'CVE-2014-0160'
p43
aS'CVE-2015-1789'
p44
aS'CVE-2016-2108'
p45
aS'CVE-2016-0702'
p46
aS'CVE-2016-6303'
p47
aS'CVE-2015-3196'
p48
aS'CVE-2015-0206'
p49
aS'CVE-2014-0221'
p50
aS'CVE-2015-1792'
p51
aS'CVE-2015-0290'
p52
aS'CVE-2015-0205'
p53
aS'CVE-2015-1787'
p54
aS'CVE-2016-0705'
p55
aS'CVE-2009-3245'
p56
aS'CVE-2014-3510'
p57
aS'CVE-2016-6306'
p58
aS'CVE-2014-3508'
p59
aS'CVE-2014-3571'
p60
aS'CVE-2014-3567'
p61
aS'CVE-2013-4353'
p62
aS'CVE-2012-2110'
p63
aS'CVE-2012-0027'
p64
aS'CVE-2016-2105'
p65
aS'CVE-2016-0701'
p66
aS'CVE-2016-2842'
p67
aS'CVE-2016-2106'
p68
aS'CVE-2016-6302'
p69
aS'CVE-2010-0433'
p70
aS'CVE-2013-6450'
p71
aS'CVE-2016-0797'
p72
aS'CVE-2015-3193'
p73
aS'CVE-2015-0209'
p74
aS'CVE-2014-2970'
p75
aS'CVE-2015-0286'
p76
aS'CVE-2012-2686'
p77
aS'CVE-2014-3570'
p78
aS'CVE-2015-0292'
p79
aS'CVE-2010-3864'
p80
aS'CVE-2016-0800'
p81
aS'CVE-2015-0288'
p82
aS'CVE-2015-0289'
p83
aS'CVE-2015-0293'
p84
aS'CVE-2016-6305'
p85
aS'CVE-2016-2180'
p86
a.