(lp0
S'CVE-2013-7023'
p1
aS'CVE-2014-2097'
p2
aS'CVE-2013-4265'
p3
aS'CVE-2012-2776'
p4
aS'CVE-2012-2801'
p5
aS'CVE-2013-3670'
p6
aS'CVE-2014-9319'
p7
aS'CVE-2012-2779'
p8
aS'CVE-2013-7009'
p9
aS'CVE-2013-3673'
p10
aS'CVE-2011-3929'
p11
aS'CVE-2012-0850'
p12
aS'CVE-2013-0856'
p13
aS'CVE-2011-4031'
p14
aS'CVE-2015-8662'
p15
aS'CVE-2013-0851'
p16
aS'CVE-2012-0849'
p17
aS'CVE-2013-0874'
p18
aS'CVE-2012-2774'
p19
aS'CVE-2013-0854'
p20
aS'CVE-2013-0861'
p21
aS'CVE-2013-7017'
p22
aS'CVE-2014-2099'
p23
aS'CVE-2013-0853'
p24
aS'CVE-2013-3671'
p25
aS'CVE-2016-3062'
p26
aS'CVE-2013-3672'
p27
aS'CVE-2016-2330'
p28
aS'CVE-2013-0868'
p29
aS'CVE-2013-2276'
p30
aS'CVE-2015-8661'
p31
aS'CVE-2014-8542'
p32
aS'CVE-2015-8365'
p33
aS'CVE-2012-2794'
p34
aS'CVE-2012-2796'
p35
aS'CVE-2011-3973'
p36
aS'CVE-2014-9604'
p37
aS'CVE-2011-3945'
p38
aS'CVE-2013-0848'
p39
aS'CVE-2014-8546'
p40
aS'CVE-2013-0872'
p41
aS'CVE-2014-9318'
p42
aS'CVE-2011-4579'
p43
aS'CVE-2015-1872'
p44
aS'CVE-2013-3675'
p45
aS'CVE-2013-0877'
p46
aS'CVE-2014-8547'
p47
aS'CVE-2013-0862'
p48
aS'CVE-2013-0866'
p49
aS'CVE-2011-3362'
p50
aS'CVE-2013-7014'
p51
aS'CVE-2012-2790'
p52
aS'CVE-2013-0852'
p53
aS'CVE-2012-2787'
p54
aS'CVE-2016-2329'
p55
aS'CVE-2013-0845'
p56
aS'CVE-2013-0865'
p57
aS'CVE-2011-3941'
p58
aS'CVE-2012-2802'
p59
aS'CVE-2013-0864'
p60
aS'CVE-2013-7011'
p61
aS'CVE-2014-8545'
p62
aS'CVE-2012-6615'
p63
aS'CVE-2011-3949'
p64
aS'CVE-2013-7022'
p65
aS'CVE-2013-0863'
p66
aS'CVE-2015-6820'
p67
aS'CVE-2012-0855'
p68
aS'CVE-2013-0844'
p69
aS'CVE-2012-2793'
p70
aS'CVE-2014-9316'
p71
aS'CVE-2012-2783'
p72
aS'CVE-2016-2213'
p73
aS'CVE-2013-3674'
p74
aS'CVE-2014-5271'
p75
aS'CVE-2014-8549'
p76
aS'CVE-2013-7012'
p77
aS'CVE-2014-9603'
p78
aS'CVE-2013-7024'
p79
aS'CVE-2016-2328'
p80
aS'CVE-2012-2775'
p81
aS'CVE-2011-3934'
p82
aS'CVE-2011-3944'
p83
aS'CVE-2014-8543'
p84
aS'CVE-2014-8544'
p85
aS'CVE-2013-0873'
p86
aS'CVE-2013-0849'
p87
aS'CVE-2014-7937'
p88
aS'CVE-2013-2495'
p89
aS'CVE-2012-6616'
p90
a.