(lp0
S'CVE-2016-10093'
p1
aS'CVE-2016-9540'
p2
aS'CVE-2016-3658'
p3
aS'CVE-2016-3990'
p4
aS'CVE-2016-10267'
p5
aS'CVE-2016-5652'
p6
aS'CVE-2016-3945'
p7
aS'CVE-2015-8665'
p8
aS'CVE-2012-4564'
p9
aS'CVE-2016-5314'
p10
aS'CVE-2016-10095'
p11
aS'CVE-2016-9536'
p12
aS'CVE-2016-10094'
p13
aS'CVE-2016-10269'
p14
aS'CVE-2013-4231'
p15
aS'CVE-2016-9538'
p16
aS'CVE-2016-9539'
p17
aS'CVE-2016-5321'
p18
aS'CVE-2012-2113'
p19
aS'CVE-2011-1167'
p20
aS'CVE-2010-2595'
p21
aS'CVE-2016-10092'
p22
aS'CVE-2013-1960'
p23
aS'CVE-2013-4244'
p24
aS'CVE-2016-9537'
p25
aS'CVE-2016-9534'
p26
aS'CVE-2016-10271'
p27
aS'CVE-2013-4243'
p28
aS'CVE-2016-3623'
p29
aS'CVE-2016-10268'
p30
aS'CVE-2012-2088'
p31
aS'CVE-2010-3087'
p32
aS'CVE-2016-3622'
p33
aS'CVE-2016-10270'
p34
aS'CVE-2016-5318'
p35
a.